(lp0
(S'ov yummyanim'
p1
S'Arts_and_Entertainment'
p2
tp3
a(S'spin tir spin tir spin tir spintir clear cach spin tir spintir spin tir beamng driv beamng driv beamng driv beamng driv beamng driv beamng driv beamng driv beamng driv beamng driv minecraft minecraft minecraft minecraft minecraft minecraft bukkit fallout fallout fallout faq fallout fallout fallout fallout euro truck sim euro truck sim et et euro truck sim euro truck sim at at at am truck sim at am truck sim fallout am truck sim spintir fallout automatron lion daf euro truck sim slavask edek euro truck sim slavask fendt euro truck sim slavask syncron log intern euro truck sim slavask volvo euro truck sim slavask pontiac tempest lem gto beamng driv slavask road strihn boom plu strihn ston brick strihn ratchet clank strihn exchang orb strihn bet sug can strihn toyot land cru strihn slavask engl fran ai deutsch esp portugu spin tir eld scrolls skyrim minecraft world tank worldofmod world mod lion daf fallout'
p4
S'Games'
p5
tp6
a(Vrogerebert review gre movy chaz blog blog far flung channel contribut review arch gre movy arch chaz blog chaz ebert chaz blog chaz blog arch chaz blog chaz ebert chaz blog blog arch far flung seongyong cho far flung gerardo valero far flung arch fest award mat fagerholm thumbnail mat fagerholm channel arch review gre movy rog ebert journ chaz blog mzs far flung bald dash demand thumbnail interview fest award sund lif can tribut rog let op shot project rog ebert chaz ebert mat zol seitz bri tallerico simon abram godfrey cheshir ody henderson glen kenny christy lemir sheil malley pet sobczynsk sus wloszczyn nick al mat fagerholm al arik stev boon danny bow dan callah seongyong cho oliv collet bri doan mark dujsik stev erickson sam fragoso noah gittel ian grey scot jord har wael khairy ben kenigsberg joyc kulhawik donald liebenson craig lindsey lay maheshwar patrick mcgavin nel minow michael mirasol jan monj om mozaff lis nesselson mich oleszczyk jessic ritchey barbar scharres krishn bal sheno collin sout bil stamet scout tafoy rebecc theod vachon katherin tulich gerardo valero pablo vill ana whit ebert digit llc sit contact advert priv policy term us movy let cast crew lik facebook follow twit rss fee movy review rat film crit rog ebert rog ebert movy review rat film crit rog ebert rog ebert rogerebert batm superm dawn just new review review tim might mak long christopher nol del touch
p7
S'Arts_and_Entertainment'
p8
tp9
a(S''
p10
S'Business_and_Industry'
p11
tp12
a(Vmelv hom isu semas lawak pendidik suk nger pelik sek melv video maharaj lawak meg minggu ful onlin melv dun hib temp read keputus malays arab saud pial dun melv suk read liv streaming malays arab saud pial dun melv suk read biodat nur nasirah nazr gad tahun kahwin orang tua melv isu semas read fenomen gerhan bul penumbr malays melv isu semas read liv streaming malays filipin persahab melv suk read last video maharaj lawak meg minggu ful onlin keputus malays arab saud pial dun liv streaming malays arab saud pial dun biodat nur nasirah nazr gad tahun kahwin orang tua fenomen gerhan bul penumbr malays liv streaming malays filipin persahab keputus malays arab saud pial dun biodat nur nasirah nazr gad tahun kahwin orang tua video maharaj lawak meg minggu ful onlin pendaft murid tahun neger selang onlin biodat rasm ungku har suam jih mus liv streaming malays arab saud pial dun pendaft murid tahun selang putrajay semak ibu bap keputus peperiksa pelaj sap kalah menang tetap bersam harimau malay thank tap budak pompu ad pakw kenap boleh tibe2 contact get expery mtd itu nam jodoh semu urus allah lagipun dia say pun nak masuk ppi claim brisb job black person ev plan job blog peribad tentang isu semas pendidik tut lawak dun hib temp dan suk melv melv video maharaj lawak meg minggu ful onlin
p13
S'News_and_Media'
p14
tp15
a(g10
S'Arts_and_Entertainment'
p16
tp17
a(S'hom chang log memb are support checkpoint cisco ciw compt cwnp council isc2 junip linux microsoft orac sun vmware emc exin isilon pmi ibm isac click request upd exam 4a0 aw cda aw saa aw sysop oa0 9l0 9l0 accp acma_6 acmp acmp_6 awmp bccpa bccpp 1y0 1y0 1y0 1y0 1y0 1y0 1y0 1y0 1y0 a17 1y0 a22 1d0 1d0 1d0 1d0 1d0 1d0 1d0 1d0 1d0 1d0 1d0 1d0 1d0 51b 1d0 1d0 1d0 1d0 1d0 1d0 1d0 1d0 1d0 1d0 cca cca cca cca cca cca cca ccb ccd ccd ccd adr br0 br0 cas cas cd0 clo clo clo clo cn0 cv0 ek0 fc0 gr1 fc0 gr1 fc0 u11 fc0 u21 fc0 u41 hit ht0 ht0 ht0 jk0 jk0 jk0 jk0 jk0 jk0 jk0 jk0 jk0 jk0 jk0 jk0 u11 jk0 u21 jk0 u31 lx0 lx0 lx0 lx0 lx0 lx0 lx0 lx0 lx0 lx0 mb0 n10 n10 n10 n10 n10 n10 n10 n10 pd1 pk0 pk0 sg0 sg0 sg0 sg0 sg1 sg1 sk0 sk0 sk0 sk0 sk0 sk0 sk0 sy0 sy0 sy0 sy0 sy0 sy0 sy0 sy0 sy0 sy0 sy0 sy0 tk0 tk0 tk0 xk0 pw0 pw0 pw0 pw0 pw0 pw0 pw0 49v8 49v8 ceh ceh 50v7 50v8 50v8 79v8 ecss e10 e10 e10 e10 e20 e20 e20 e20 e20 e20 e20 e20 e20 e20 e20 e20 e20 e20 e20 e20 e20 e20 e20 e20 e20 e20 e20 e20 e20 e20 e20 e20 e20 e20 e20 e20 e20 e20 e20 e20 e20 e20 e20 e20 e20 e20 e20 e20 e20 e20 e20 e20 e20 e20 e20 e20 e20 e20 e20 e20 e20 e20 e20 e20 e20 e20 e20 e20 e20 e20 e20 e20 e20 e20 e20 e20 e20 e20 e20 e20 e20 e20 e20 e20 e20 e20 e20 e20 e20 e20 e20 e20 e20 e20 e20 e20 e20 e20 e20 e20 e20 e20 e20 e20 e20 e20 e20 e20 e20 e20 e20 e20 e20 e20 e20 e20 e20 e20 e20 e20 e20 e20 e20 e20 e20 e20 e20 e20 e20 e20 e20 e20 e20 e20 e20 e22 e22 e22 e22 e22 evp asf bimf bimf cloudf ctal tm_001 ex0 ex0 ex0 ex0 ex0 ex0 ex0 ex0 ex0 ex0 ex0 ex0 ex0 ex0 ex0 ex0 ex0 ex0 ex0 ex0 ex0 ex0 ex0 ex0 ex0 ex0 ex0 ex0 ex0 ex0 ex0 ex0 ex0 ex0 isf isf iso20kf itil itil itil itil itsm20f itsm20f moff moff mopf morf movf mspf p3of pr2f sc0 scnp scns tmpf tmpte hh0 hh0 hh0 hp0 hp0 hp0 hp0 hp0 hp0 hp0 hp0 hp0 hp0 hp0 hp0 hp0 hp0 a03 hp0 a100 hp0 a16 hp0 a17 hp0 a20 hp0 a21 hp0 a22 hp0 a23 hp0 a25 hp0 d08 hp0 d09 hp0 d11 hp0 d12 hp0 d13 hp0 d14 hp0 d15 hp0 d17 hp0 d20 hp0 d21 hp0 d23 hp0 j30 hp0 j33 hp0 j45 hp0 j46 hp0 j47 hp0 j48 hp0 j49 hp0 j51 hp0 j52 hp0 j53 hp0 j54 hp0 j62 hp0 j63 hp0 j63 hp0 j64 hp0 j64 hp0 j65 hp0 j65 hp0 j66 hp0 j67 hp0 j67 hp0 j73 hp0 j73 hp0 m101 hp0 m102 hp0 m33 hp0 m34 hp0 m35 hp0 m38 hp0 m40 hp0 m41 hp0 m43 hp0 m44 hp0 m45 hp0 m46 hp0 m47 hp0 m48 hp0 m49 hp0 m54 hp0 m57 hp0 s30 hp0 s33 hp0 s35 hp0 s36 hp0 s40 hp0 s41 hp0 t01 hp0 y30 hp0 y30 hp0 y43 hp0 y43 hp0 y44 hp0 y45 hp0 y46 hp0 y47 hp0 y49 hp0 y50 hp0 y50 hp0 y50 hp2 b102 hp2 b104 hp2 b105 hp2 b106 hp2 b109 hp2 b110 hp2 b110 hp2 b112 hp2 b113 hp2 b115 hp2 b90 hp2 b93 hp2 b95 hp2 b97 hp2 b99 hp2 e46 hp2 e51 hp2 e53 hp2 e56 hp2 e57 hp2 e58 hp2 e59 hp2 e60 hp2 h23 hp2 h24 hp2 h25 hp2 h27 hp2 h28 hp2 h30 hp2 h31 hp2 h32 hp2 h33 hp2 k22 hp2 k27 hp2 k32 hp2 k33 hp2 k36 hp2 k37 hp2 k38 hp2 k40 hp2 n27 hp2 n29 hp2 n31 hp2 n32 hp2 n34 hp2 n36 hp2 n44 hp2 n46 hp2 t16 hp2 t21 hp2 t23 hp2 t24 hp2 t24 hp2 t26 hp2 t29 hp2 t31 hp2 w100 hp2 w104 hp2 z20 hp2 z27 hp2 z28 hp2 z30 hp2 z32 hp2 z33 hp3 hp3 hp3 hp3 hp3 hp3 hp3 hp3 hp3 c02 hp3 c11 hp3 c25 hp3 c27 hp3 c29 hp3 c32 hp3 c36 hp3 l04 hp3 l07 hp3 r95 hp3 x04 hp3 x05 hp3 x06 hp3 x08 hp3 x09 hp3 x10 hp3 x11 hp3 x12 hp5 b02d hp5 e01d hp5 h01d hp5 h03d hp5 h04d hp5 h05d hp5 h07d hp5 h08d hp5 k01d hp5 k03d hp5 t01d hp5 z01d m75 c2010 c2010 c2010 c2010 c2010 c2010 c2010 c2010 c2010 c2010 c2010 c2010 c2010 c2010 c2010 c2010 c2010 c2010 c2010 c2010 c2010 c2010 c2010 c2010 c2010 c2010 c2010 c2010 c2010 c2010 c2020 c2020 c2040 c2040 c2060 c2090 c2090 c2090 c2090 c2090 c2140 c2140 c2140 c2180 c2180 c2180 c2180 c2180 c2180 c2180 c4040 c4040 c4040 c4040 c4090 c4090 c4090 cog cog cog lot lot lot lot p2090 cobit5 exam cgeit exam cis exam cis exam cism exam cism exam crisc cap cissp cissp cissp cissp issap cissp issap cissp issep cissp issmp csslp sscp sscp onef ctal ctal ctal ta_syll2012 ctal ta_syll2012_uk ctal ctal ctal tm_syll2012 ctal tta ctfl ctfl ireb isebswtint jn0 jn0 jn0 jn0 jn0 jn0 jn0 jn0 jn0 jn0 jn0 jn0 jn0 jn0 jn0 jn0 jn0 jn0 jn0 jn0 jn0 jn0 jn0 jn0 jn0 jn0 jn0 jn0 jn0 jn0 jn0 jn0 jn0 jn0 jn0 jn0 jn0 jn0 jn0 jn0 jn0 jn0 jn0 jn0 jn0 jn0 jn0 jn0 jn0 jn0 jn0 jn0 jn0 jn0 jn0 jn0 jn0 jn0 jn0 jn0 jn0 jn0 jn0 jn0 jn0 jn0 jn0 jn0 jn0 ex200 rh033 rh133 rh202 ubuntu level wish1 fabol exam mb2 mb2 mb5 mb5 mb6 mb6 mb6 mb6 mb6 mb6 mb6 mb6 mb7 mb7 mb7 mb7 uncateg ns0 ns0 ns0 ns0 ns0 ns0 ns0 ns0 ns0 ns0 ns0 ns0 ns0 ns0 ns0 ns0 ns0 ns0 ns0 ns0 1z0 1z0 1z0 1z0 1z0 1z0 1z0 1z0 1z0 1z0 1z0 1z0 1z0 1z0 1z0 1z0 1z0 1z0 1z0 1z0 1z0 1z0 1z0 1z0 1z0 1z0 1z0 1z0 1z0 1z0 1z0 1z0 1z0 1z0 1z0 1z0 1z0 1z0 1z0 1z0 1z0 1z0 1z0 1z0 1z0 1z0 1z0 1z0 1z0 1z0 1z0 1z0 1z0 1z0 1z0 1z0 1z0 1z0 1z0 1z0 1z0 1z0 1z0 1z0 1z0 1z0 1z0 1z0 1z0 1z0 1z0 1z0 1z0 1z0 1z0 1z0 1z0 1z0 1z0 1z0 1z0 1z0 1z0 1z0 1z0 1z0 1z0 1z0 1z0 1z0 1z0 1z0 1z0 1z0 1z0 1z0 1z0 1z0 1z0 1z0 1z0 1z0 1z0 1z0 1z0 1z0 1z0 1z0 1z0 1z0 1z0 1z0 1z0 1z0 1z0 1z0 1z0 1z0 1z0 1z0 1z0 1z0 1z0 1z0 1z0 1z0 1z0 1z0 1z0 1z0 1z0 1z0 1z0 1z0 1z0 1z0 1z0 1z0 1z0 1z0 1z0 1z0 1z0 1z0 1z0 1z0 1z0 1z0 1z0 1z0 1z0 1z0 1z0 1z0 1z0 1z0 1z0 1z0 1z0 1z0 1z0 1z0 1z0 1z0 1z0 1z0 1z0 1z0 1z0 1z0 1z0 1z0 1z0 1z0 1z0 1z0 1z0 1z0 1z0 1z0 1z0 1z0 1z0 1z0 1z0 1z0 1z0 1z0 1z0 1z0 1z0 1z0 1z0 1z0 1z0 1z0 1z0 1z0 1z0 1z1 exam 1z0 upd septemb 29th uncateg ca0 pgmp pmi pmi pmi pmi pmi rmp pmi prince2 prince2 practit prince2 practit prince2 found dev dev s10 s10 s10 s10 s10 s10 s10 og0 og0 og0 og0 og0 og0 1v0 1v0 1v0 vca410 vcac510 vcac510 vcad510 vcan610 vcap5 dcd vcaw510 vci510 vci550 vcp vcp vcp vcp vcp vcp vcp vcp vcp vcp410 vcp5 dcv vcp5 dcv vcp5 vcp510 vcp510 vcp510 vcp510pse vcp550 vcp550d vcp550pse vcpc510 vcpc510 vcpc550 vcpc610 vcpd510 vcpd610 vcpn610 vcpvcd510 vcpvcd510 vcpvcd510 admin pleas ad dump 1z0 thank kesav admin pleas upload dump 1z0 pleas upd latest on upd http aiotestk microsoft categ exam configurin exam upd march 7th http aiotestk microsoft tag pure112 avail http aiotestk microsoft categ exam cod upd http aiotestk microsoft tag upd exam upd march 6th http aiotestk microsoft tag avail http aiotestk microsoft tag pure112 exam upd http aiotestk microsoft tag upd exam upd march 5th http aiotestk microsoft tag aiotestk upd dai common quest answ expl exam linux orac cisco window checkpoint compt eccouncil isc2 junip microsoft sun vmware ciw fre exam on testk fre quest exam rec com copyright aiotestk right reserv'
p18
S'Career_and_Education'
p19
tp20
a(Vupload condit ral util reto haut upload fichy depu ordin upload des fichy depu ordin mult upload multiup org upload miroir fichy sur plusy berg est que multiup org cliquez glissez posez vos fichy progress glob reto haut
p21
S'Internet_and_Telecom'
p22
tp23
a(S'borratin mono bingo telekino megabol maradon pocead loto quin brinco prod loto plu quiniela notitimb punto quiniel vivo plu pocead borratin megabol mendoz sant santiago rdob montevideo'
p24
S'Gambling'
p25
tp26
a(Vagreg list falabell cmr vias falabell seguro falabell sodimac falabell export logo falabell busc producto vent corporativ tienda servicio cli busc list conoc nuestro beneficio ver ver ver ver ver ver ver ver additemtocarter bankpromotionwarningtrig givenchy dahl divin edp agreg bols agreg list robert al juego vajill jos agreg bols agreg list ros div cam ergo agreg bols agreg list calvin klein rev wom edp agreg bols agreg list ros div cam ergo agreg bols agreg list samsung lavarropa wf1702 agreg bols agreg list mic taz con asa porc agreg bols agreg list philip afeitador at898 agreg bols agreg list nespresso quin caf in agreg bols agreg list nespresso quin caf pix producto agotado agreg list kitchenaid batidor ksm15er agreg bols agreg list lavarropa f1400td agreg bols agreg list rmino cond reg strate actualiz dato cambi clav recuper clav estado compra factur elect nic seguimiento rden lista regalo beneficio falabell todo costo env pol tic devoluc cambio rmino cond privacidad seguridad map del sitio cmr vias falabell seguro falabell falabell export sodimac nuestr empres vent corporativ inversionista trabaj falabell vend virt cuidado con email fraudulento cuidado con email fraudulento responsabilidad soc responsabilidad soc compr segur compr segur dat fisc dat fisc contacteno falabell falabell argentin bienvenido nuestr tiend onlin electrodom stico producto destacado lista novio precio ref costo cobrado moned del
p27
S'Shopping'
p28
tp29
a(Vlogin hom photo video buysel produc for plac overview bik shop bik club bik guid shuttl serv trail assocy trailfork shop top new pinkbik review pinkbik storytel pinkbik tech pinkbik photo ep pinkbik develop new us gen heal fit first look rac interview photograph ev video video spons industry insid press releas fmb world tour red bul bik video enduro world sery read rac simon william read rac mat wrag read pinkbik tech mik kazim read us gen read rac simon william read spons pinkbik staff read video enduro world sery read us gen paul aston read pinkbik tech mik levy read rac mat wrag read video wal read first look mik kazim read pinkbik storytel richard cunningham read industry insid ib cyc read video sixsixon protect read video bicyc read pinkbik storytel bric shirbach read pinkbik review paul aston read interview mat wrag read video enduro world sery read interview read us gen tito tomas read video deity compon read video anthil film read pinkbik review richard cunningham read first look vernon felton read us gen read pinkbik tech pinkbik staff read video giant bicyc read new follow pinkbik com prevy pod com prevy vod redbul mec trek spec patrol bik pivot diamondback devinc rocky mountain giant bik scot lapier dartmo airborn bik cannond felt bik khs kon norco knol morphe black market bik com bomb bansh bik intens nin macmahon sant cruz orbe yet rsd bik industry polygon bik bmc switzerland jam cub whyt bik radon bik canfield broth ib marin sram shimano wtb can creek rac fac magur renth formul answ hay truv sun ringl mav profil rac sdg spank crankbroth syncro compon deity brak auth easton cyc alexrim fun novatec ergon halo wheel foury gub fabr thirteen superst compon vittor ful spee ahead grav compon blackspir lizard skin rot bik compon ritchey kmc chain rockshox sunto manitou fus shox marzocch dvo fox rac bos mtb avalanch mrp maxx bont michelin tiog schwalbe hutchinson kend wtb unit cloth poc forcefield body armo sid laz helmet rockwel tim medzon glid gear conto on industry tuf rack smi opt nat eyewear jagwir daines ix fox cloth ryd eyewear park tool sombrio gopro urg bik leat bel helmet giro roy rac 7idp troy lee design bliss protect yakim fly rac met bluegrass maxim rac oil kal protect alpinest prologo birzm neal juic lub muc industry atla brac technolog int evoc sport sourc outdo flar cloth ion lizard skin dakin tepu tent aerosph cloth capilano univers sum grav camp ayr academy zep mtb camp bas mtb camp chain react cyc cambr bik dunb cyc jensonus calg cyc nor shor bik shop tbs bik part backcountry competit cyc tweek cyc fan bik whistl mountain bik park highland mountain bik park cariboo silv star bik park mammo mtn trestl bik park angel fir bik park bik park sun peak cop ray mtb panoram kick hors ski bromont mountain bik ferny gold mountain bik park city bear mountain lif cyc anthil film strength numb minut gap contact faq term us priv policy sign advert pinkbik dai friend find us onlin pinkbik liv pinkbik rss fee pinkbik twit pinkbik facebook mobl vert websit check pinkbik latest cyc mountain bik new freerid video photo ev submit bik pict video onlin latest bik dvds video check rac result mountain bik new photo video ev pinkbik top new
p30
S'Sports'
p31
tp32
a(S'deo blog jogo entr ent ver mai ent ent sou princes sou real ver tudo ver tudo sit disney disney babbl parqu dio disney marvel film zootop bom dinossauro divertid ment tomorrowland lug ond nad imposs vel jogo jogo onlin aplicativo disney infin club penguin deo film rie sic toda col oportunidad trabalho publicidad pol tica privacidad termo cond uso sit of disney rie deo film jogo sic person muito mai disney brasil sit of disney see rev deo'
p33
S'Arts_and_Entertainment'
p34
tp35
a(Vlearn engl primero paso test nivel nivel sico nivel intermedio nivel avanzado curso completo ingl negocio vocabulario par viaj verbo regul verbo irregul phrasal verb video lecc ejercicio gram tic cant ingl juego vocabulario expres ingl refr ingl cita ingl traduc conjugad chuleta ingl extranjero noticia chat ingl acc registro olvidado contras tien cuent reg strate grat rmino cond pol tic privacidad tien cuent entr aqu reg strate sigu explorando test nivel intermedio avanzado sico negocio cant ejercicio deo expres chat cita vocabulario expres refr cita traduc conjugad chuleta chat acc registrarm grat bienvenido aprend practic recurso comunidad progreso quiero particip primero paso test nivel nivel sico nivel intermedio nivel avanzado curso completo verbo regul verbo irregul phrasal verb ejercicio gram tic video lecc cant ingl juego expres ingl refr ingl cita ingl traduc conjugad vocabulario chuleta noticia chat ingl desast nat vivir sin marca fals friend horario comerc palabra que caus confus ingl inicio ayud contact pol tic privacidad dato leg arrib aprend ingl grat con nuestro curso mas lecc con ejemplo audio distinta divertida forma estudi ingl cant ejercicio deo expres chat encontr adem herramienta que ayud estudi ingl conjugad verbo traduc buscad verbo phrasal verb etc pru bala curso ingl onlin sitio par aprend ingl grat sitio par aprend ingl grat confirm tus dato
p36
S'Career_and_Education'
p37
tp38
a(Vhom academ admit camp lif research contact feedback vis miss cus glant admin chancel pro chancel vic chancel pro vic chancel statut off synd sen academ council dean facul head depart direct cent facul memb univers off loc act statut an report stud cur stud academ program academ calend academ bulletin cod conduc cho bas credit system stud serv research scholars onlin cours prospect stud academ academ program apply intern stud facul cus facul research act onlin cours libr univers libr research gateway institut reposit digit libr med reposit examin exam port result pri adm not apply form publ rel new let press releas cus med serv off weath bulletin car vac onlin vac offlin rank list tend act tend proc intranet login iqac ord pend circul intercom cus mail fin wing op def cus elect biomet tim check research libr admit camp lif academ program miscel download tend press releas car vac right serv act right inform act alumn hostel plac you welf eq opportun cel nat serv scheme complaint reg serv cert ver system proc govt keral govt ind disclaim contact cochin univers sci technolog cochin cochin univers sci technolog hom pag pleas giv feedback websit
p39
S'Career_and_Education'
p40
tp41
a(Vver ap ver ap ayud chat mis pedido dafit femenino masculino infantil deport dafit mag zapato femenino mocasin alpargata creep suela ancha sneak lifestyl baleta sandalia tacon bota oxford playera deportivo peep toe zapato cas toda las categ masculino mocasin oxford lifestyl zapato form playera alpargata sandalia bota zapato cas toda las categ infantil unisex zapato zapato toda las categ vestuario femenino blusa plu siz leg media rop dormir rop intery tras vestido overol enterizo falda short pantalon jean chaqueta chaleco abr saco cardig buso camiseta camisa toda las categ masculino tras media rop intery bermuda pantaloneta pantalon jean chaqueta chaleco abr buso saco cardig camiseta camisa toda las categ infantil femenino masculino toda las categ accesorio masculino mor guant canguro gorra sombrero set caram ola estuch maleta bolso cinturon gafa billetera maletin relod bisuter toda las categ femenino mor maletin llavero canguro bisuter caram ola estuch monedero maleta gorro sombrero gafa cinturon billetera bolso bufanda relod toda las categ infantil toda las categ deport femenino vestuario equipamiento accesorio zapato toda las categ masculino vestuario equipamiento accesorio zapato toda las categ infantil masculino femenino toda las categ marca oferta femenino masculino deport ten tns adida nik bos brahm pink connect seventy degr pier nin kenne col armo lev muss oc pac new look fil mng gef pier nin everlast pum reebok stival tommy hilfig molec velez hot sal black friday cyb lun playera blusa vestido dia madr dia del padr baleta jean camiseta deportiva camisa relod deportivo ten nik ten fil facebook twit pinterest youtub instagram aviso cumplimiento pol tic privacidad plazo costo env rmino cond pol tic dato aviso privacidad sobr dafit registro compr uso cupon seguridad devoluc dafit sport dafit argentin dafit brasil dafit chil conoc nuestr pol tic privacidad pol tic dato info dafit mobl tablet compr ropa zapato accesorio las mej marca dafit colomb tiend mod onlin pago contraentreg entr ahor dafit colomb mod onlin zapato rop accesorio camp categ
p42
S'Shopping'
p43
tp44
a(S'memb reg login fraud policy priv policy term serv mak money onlin paid survey market dcd work advert pay sign fre sit complet fre off tak survey try produc shop onlin earn per act refer must complet off cash off earn earn ev cash particip dai week month contest stm'
p45
S'Internet_and_Telecom'
p46
tp47
a(g10
S'Arts_and_Entertainment'
p48
tp49
a(g10
S'Arts_and_Entertainment'
p50
tp51
a(g10
S'Business_and_Industry'
p52
tp53
a(S'act gam adv gam girl gam puzzl gam rac gam shoot gam sport gam strategy gam rac dress girl dress shoot skil cartoon puzzl cook fun mario driv adv footbal car sport girl act arcad act mous skil act gam adv gam girl gam puzzl gam rac gam shoot gam sport gam strategy gam priv policy term us contact suggest gam play best newest onlin gam hottest act rac girl shoot puzzl sport gam on plac play onlin gam 8bob'
p54
S'Games'
p55
tp56
a(S'oh18zeed cartoon henta xxx liv webcam porn onlin sex clip vdo webcam taiw camfrog tha arpu07 xxx porn xxx xxx sex kor xxx porn porn clip thailand girl as am big liv webcam porn onlin sex clip vdo oh18zeed jap xxx oh18zeed jap cartoon henta xxx clip anim henta idol sex doujin doujin doujin train doujin naruto sakur xxx sexy xxx xxx doujin popul latest random xxx sexy doujin boa hancock on piec xxx cartoon henta xxx liv webcam xxx oh18zeed xxx sitemap rss fee cartoon henta cliphot'
p57
S'Adult'
p58
tp59
a(S'vietchr engl sign chay xem xem nhi radio tin facebook thi kinh thi low graph sit shar priv tin blog toolb toolb vietchr twit vietchr websit tin tin vietchr thi low graph sit shar priv'
p60
S'People_and_Society'
p61
tp62
a(S'pok onlin indones facebook twit youtub pin bantu kebijak refer back top ag pok onlin indones terpercay gabung pokerclub88 sit pok onlin indones menggunak uang asl tanp bot dan ternyam ag pok onlin indones terpercay ag pok onlin indones pok onlin indones pokerclub88 ag pok onlin indones yang sudah menggunak sistem keam terkin dan dilengkap deng perangk kera dan lunak yang canggih sehingg kenyam keam dan rahas dat pribad and am bersam pokerclub88 kepuas dan kenyam pemain sang kam utamak pokerclub88 jug memilik banyak keungg dan fasilita baru salah satuny sistem refer yang ak memberik and penghasil tambah setiap mingguny semu permain dalam pokerclub88 tidak menggunak bot robot maupun staff yang ikut bermain seger daftark dir and sekarang jug dan nikmat permain fair gam pokerclub88'
p63
S'Gambling'
p64
tp65
a(Vjuego pel cula descarg sic sery formulario contacto tor pel cula sery juego podr descarg sic pel cula grat mej web tor juego sic pel cula grat tor pel cula sic juego grat zen tor tor pel cula descarg sic juego grat zen tor
p66
S'Arts_and_Entertainment'
p67
tp68
a(Vsarkar naukr recruit sarkar naukr bank job teach job job def job railway cur affair priv job scholarship nda cat wrd maharashtr cds not uptet jeecup lic scholarship eschol onlin scholarship mes recruit mescom recruit apply form ent exam not result scholarship syllab bank holiday list stat wis bank holiday pdf download read prim min rozg yojan loan apply form onlin process read ioc mathur recruit advert trad appr post vac post trad appr read ghfwd staff nurs recruit class ii oja guj gov read wapco gov recruit apply engin op advt read min def job mod nic latest recruit op read lawcet apply form pglcet not exam dat aplawcet org read uppc aro recruit uppc org steno off asst apply onlin read pat admit card pre agricult test hal ticket link vyapam nic read bhel bang recruit apply gradu non eng non tech read old post hom popul post nda exam apply form not onlin reg railway recruit group bhart fresh onlin apply form uptet upbasiceduboard gov apply form last dat cds upsc cds exam dat onlin reg form elig criter ic aiee apply form onlin exam dat reg sbi recruit not sbi post apply polytechn jeecup onlin reg apply form exam last dat step fil onlin apply form ugc cbse net syllab exam pattern form pdf fre scholarship nic onlin apply form last dat dashmott job assam job bih job chhattisgarh job delh job guj job haryan job jharkhand job keral job maharashtr job job oriss job rajasth job tamil nadu job job west beng 10th pass job 12th pass job diplom job gradu job bank job sarkar naukr railway job 12th pass job 10th pass job priv policy sitemap sarkar naukr blog sarkar naukr sarkar naukr trend bank holiday list stat wis bank holiday pdf download
p69
S'Career_and_Education'
p70
tp71
a(Vthank thank funny entertain new technolog video pict theoddsb submit cont vir weird sport celebr film gam mus interest technolog new food car awesom anim feel inspir fail dai lad contact websit term condit priv cooky advert view new new entertain celebr entertain awesom new fail entertain fail new new entertain film sport interest pict dai lad entertain mus awesom new new commun interest new new entertain film entertain mus entertain celebr entertain celebr entertain film load advert contact theladb group job term condit priv cooky lad bibl on largest commun guy ag world send funniest pict video hom lad bibl mag pilot man land plan without front land gear new year resolv thank
p72
S'News_and_Media'
p73
tp74
a(g10
S'Shopping'
p75
tp76
a(Vkat middleton wear flor gown gal din rihann drop victor secret fash show victor secret firework fantasy bra nicol curt host rehab addict bring commun togeth help bernzom top look rebel wilson new lin torrid top comfy pajama wint top look christian dad ss16 top brid trend fal back top youtob top story new fash blow mind
p77
S'Arts_and_Entertainment'
p78
tp79
a(Vpric list mov shak metagam form stapl superbrew us submit deck submit deck artic draft stat collect deck pric alert prem memb deck pric chrome brows extend deal find duel deck bless curs oa gatewatch command holiday gift box battl zendik ftv angel duel deck zendik eldraz mag origin modern mast dragon tarkir book toy com deck box holiday gift guid login superbrew follow mtggoldfish vint vint strategic complex islandswamp rough draft rough draft ravnic ravnic guildpact saffronol soi limit review shadow innistrad spoil limit review march jak stil shadow innistrad shadow innistrad spoil mtggoldfish od od worldfir saffronol oa gatewatch al oa gatewatch draft sam merch soi limit review shadow innistrad spoil limit review march jak stil shadow innistrad shadow innistrad spoil mtggoldfish ral ral mardu green mardu green eldraz eldraz affin affin delv delv goblin goblin oloro ageless ascet oloro ageless ascet tasig gold fang tasig gold fang grand prix par scg modern class indianapol scg leg class indianapol scg standard op indianapol view latest soi spoil tarmogoyf adark wast kalita trait ghet horizon canop cruc world arlin kord alway watch jac unravel secret diregraf coloss sigard heron grac faq discuss priv policy term us contact reset sign fre mag gath mag onlin pric deck strategy mtggoldfish mag gath pric deck strategy vint strategic complex mar islandswamp get soc islandswamp goe tip play popul form stapl look sweet vint deck
p80
S'Shopping'
p81
tp82
a(Vanmeld abmeld serv bestellkart mein konto fran ai wunschl bequem kauf auf rechnung bhs dess mod mehr umstandsmod modegloss facebook youtub pinterest instagram bestellung akt lieferung versandkost wunschl cksendung rezend zahlung ssenb katalog anfordern mein konto telefon hotlin mail faq ber bonprix qualit verantwortung swiss onlin garanty europ trust mark agb datenschutz impress mod von bas blaz anz blus bolero hos jack ntel jean jup kleid pullov swe shirt sportbekleidung strickjacken top tunik umstandsmod ihr komplet look accessoir bademod schuhe sche gross ssen black whit bas blaz anz blus hos jack gilet jean jup kleid pullov sweatshirt shirt sportbekleidung strickjacken top tunik umstandsmod neuheit al neu artikel inspir streifenmode lein spitz black whit farb highlight look lik mum denim trend fit durch jahr sport fash partyoutfit busy mod bestsel uns bonprix mark damenw sche bhs dess schen set body shapewear cors neglig erotikw sche badem ntel nachtw sche sportw sche stil umstandsw sche strumpfmoden gross ssen formstark bhs formstark dess schen body shapewear cors neglig erotikw sche nachtw sche sportw sche herrenw sche boxershort slip pyjama str mpfe kinderw sche neuheit al neu artikel inspir streifen black whit farb highlight hlingsfarb sport fash verf hrerisch kurv klassisch weiss black back cup cup uns bonprix mark herrenmod anz bas bermuda hemd hos jack gilet jean langarmshirt poloshirt pullov strickjacken sweatjack sweatshirt shirt gross ssen oberteil unterteil sche boxershort pyjama slip schuhe sneak freizeit halbschuh stiefel sock accessoir bademod neuheit al neu artikel inspir streifenmode black whit farb highlight look lik dad denim trend busy mod sport fash cool bestsel uns bonprix mark dchen baby min kid teen knab baby min kid teen kindermod body strampler hos jack schneeanz jean jup kleid outfit shirt blus hemd sportmod swe strick nachtw sche unterw sche bademod gro accessoir schuhe str mpfe kinderzim neuheit al neu artikel inspir streifenmode farb highlight look lik mum dad bas kind denim trend aktuel babymod bio baumwol hello kitty star war mehrfachpack al artikel unt chf damenschuh von bis ballerina bequemschuh halbschuh mokassin high heel lederschuh pantolet hausschuh pump sandalet schn rschuhe sneak freizeit sport trekkingschuh stiefel stiefelet str mpfe herrenschuh von bis halbschuh stiefel pantolet sand hausschuh sneak freizeit sport trekkingschuh str mpfe kinderschuh von bis sneak freizeit stiefel gummistiefel str mpfe hausschuh accessoir tasch rtel schals cher tzen cap schmuck uhr neuheit al neu artikel inspir farb highlight denim trend sport fash boho chic bestsel bademod dam bikin badeanz badeanzugkleid tankin shapewear gross ssen umstandsbademod young swimwear gross cup strandmode bademod her bademod kind bademod dchen bademod knab neuheit al neu artikel inspir streifenmode black whit jed fig schwimmen aquafit lieblingsbademod stilvol bademod black beauty maritim bademod figurwund heimtexty bademat bettdeck kopfkiss bettw sche duschvorh nge fussmat gardin und rollo handt cher huss berw rfe kindertexty kissenbez lak aufl tagesdeck plaid teppich tischdeck gart gartenm bel gartenzubeh gartendeko bel dek badm bel nke truh bet nachttisch dek garderob kinderm bel kommod board leucht ordn und organisy polsterm bel hock reg schr nke schuhschr nke spiegel hle sitzb nke tisch haushalt geschir besteck chenausstattung neuheit al neu artikel inspir farb highlight gardin trend afrik look fotodruck trend eul bestsel wohnwelt ein raum viel look damenmod accessoir bademod bas blaz blus gross ssen hos jack jean jup kleid ntel pullov schuhe shirt strickjacken swe top tunik umstandsmod sche herrenmod anz bademod bermuda gross ssen hemd hos jack jean langarmshirt poloshirt pullov schuhe sweatjack sweatshirt shirt sche kindermod babymod bademod knabenmod dchenmode schuhe sche wohn badtexty bettw sche lak deko ordnung fussmat gardin rollo bel sonstig heimtexty teppich akt schn ppchen mindest rabat bis new ar sal mein leb osterdeko mein stil strick guid denim guid weit shop mein trend weit shop bonprix der onlin shop nstige mod bietet ein gro auswahl dam und herrenmod sowy viel heimtexty nstige mod dam her und kind onlin shop von bonprix rein dein lieblingoutfit und rau den hling grat versand cod mar16 kein angebot verpass willkom jetzt anmeld
p83
S'Shopping'
p84
tp85
a(Vprecis ajud encont bot rio club viv bot rio meu pedido meu pedido sair feminino perfumar accord acqu acqu fresc ann capricho cecit coff egeo ely floratt fre glamo intens lily lind mak myriad nativ spa bot rio oopss thaty maquiagem esmalt acess rio boc corpo demaquil esmalt olho pint prim rosto mak col adapt mak lumin intens cal rni intens cat cabelo condicionad crem sem enxagu finalizad shampoo tratamento capil corpo banho acess rio desod esfo hidr linh sol leo sabonet rosto antissina esfo scar hidr crem limpez pel linh sol nico tratamento acn acess rio acess rio mod acess rio belez aromatizad amby banho bem est organizad outro mak scar alongador pret ver mai detalh compr masculino perfumar arbo coff connect dimitr egeo fre galb malbec men portinar quas styletto uomin xtreme zaad cabelo gel fixad shampoo corpo banho desod hidr crem sabonet rosto cuidado tratamento barb barb acess rio aromatizad amby banho bem est acess rio mod organizad outro uomin sport desod body spray 100ml ver mai detalh compr infantil perfumar bot baby capricho petit soph spulok thaty xtreme maquiagem boc olho cabelo shampoo condicionad finalizad gel fixad corpo banho hidr sabonet leo desod acess rio linh sol bot baby hidr banho banho 150g ver mai detalh compr pres kit pres kit feminino kit masculino kit inf promo linh complet uomin black des col nia 100ml ver mai detalh compr galb des col nia 100ml ver mai detalh compr acqu fresc des col nia 110ml ver mai detalh compr mak palet maquiagem luxury cas ver mai detalh compr par hom par mulh tod perfumar forma pagamento prazo entreg regulamento compr compr segur troca devolu pergunta frequ fal conosco meu pedido grupo bot rio noss hist ria sal imprens reciclagem emb sustentabilidad trabalh grupo bot rio plano neg cio sej franqueado encont um loj revend sej revend loj bols digicert pol tic privacidad alert sobr seg digo defes consumid carg tribut ria conh linha cosm tico produto par cabelo maquiagem tratamento fac hidrat corp perfumar compr onlin bot rio compr perfum maquy cosm tico pres mai vendido perfumar interbel rcio produto belez ltda set setembro and curitib prcnpj boti_ciclo 21_15 maquiagem acess rio
p86
S'Beauty_and_Fitness'
p87
tp88
a(g10
S'Internet_and_Telecom'
p89
tp90
a(Vskil act demolit phys adv stunt freak sinbad journey moon pol moby dick raid miss avalanch learn fly deep underground spree driv simpson arch twin driv disord truck adv nooby invas robot bee robot ic dragon canyon valley ral robot tank desert rag rid stranded deep rancho ranch tank hir war hero frant robot helicopt wis turn wild wasteland ter trench sect warf bunny run team rob funky skat pillow city zero parko assembl bot long bus driv ben rac pet hous story puppet ten heavy driv missil def shark mountain sup battl city detect slack bount cannon box liv jurass cargo fir helicopt spooky motocross spac duuud vik zomby bazookitty littl pony surpr party tank destroy fruit ninj onlin papa freezer wat carib cru makeov bal pool multiplay fireboy watergirl happy wheel basketbal mast pilot hero cuttherop cut rop tim travel goodgam pok goodgam big farm band hero goodgam empir shadow king kingdom rush london rex maggy saw gam monkey happy thanksg doom forg duckl treas hunt eldevin rex monst truck demol angry bird rio doucheb workout candy crush sag plant zomby earn die part fee lost island valentin party cleanup bomb run ninj run gun mayhem mut fight cup zomby fight club dino assault fee pir zombo bust kingdom rush strike forc hero ag war uphil rush dead parad siegi aren earn die friv gam friv friv friv fre onlin gam commun play friv4 gam hand pick entertain gam friv kid play friv juego friv new friv gam best fre onlin friv
p91
S'Shopping'
p92
tp93
a(Vlog fre showreel hom join folio search shoot for contact help log join password siwe gold_oleander shoot prevy win ban pag search art view art adv search simone_l prevy pick view folio eve_g first_woman continu eve_g first_woman vot hitl hollywood holly_communion jess_b reflected_glory vot hitl wolf move_into_wolf laury amplifyh vot hitl robbin_r lush_and_steamy vot hitl advik flaut_it vot hitl senn age_of_aquarius ambr savoir_faire vot hitl went liv fil nam consist nam nam hand fre model fold op hullo katie_z hit list newby art night lif posit vers neg visit for mira_k laris juliette_c monday_j bonnie_a aria_w astrid_l ambr margarita_c petunia_m vot click art year feck websit project_ism erot art publ nud new releas memb log memb join forgot password pleas ent email address account lost password recal detail pleas us help link top follow instruct email hand fre ism art priz art siwe folio gold_oleander siwe illumin ishotmyself mon klimt inspir folio gold_oleander expery pos rang erot eleg play introspect siwe push bound poss self tim vor cre driv congrat siwe win febru art priz priz mon award outstand prim folio shoot chant win check prevy win fre dai im get fre dai pic webp blog ban pag art folio search art view art adv search
p94
S'Adult'
p95
tp96
a(g10
S'Business_and_Industry'
p97
tp98
a(S'pleas click brows autom redirect'
p99
S'People_and_Society'
p100
tp101
a(Vhom android phim blog nick team ninj school onlin hot onlin phong truy onlin iwin onlin tri win gopet onlin mob army onlin hot avat anh onlin gam onlin gam onlin cho android lik brows sec vir ap launch bekool cool lock flappy bird rop fly ninj school jar apk io army jar apk io avat jar apk io kpah jar jad apk jar apk phong jar apk io iwin jar jad apk io gopet jar jad apk bigon jar jad apk onlin auto click max spee fix lag avat smart farm anh map jewel xforc onlin max spee fix lag auto click army onlin chi thanh auto click ninj nvhn goback fak skil hon onlin spee fix lag auto click chuy map xem tho load ninj angelchip luy skil next map sinh kpah menu next map luy xem gam tig wood pga tour golf cho tho gam gti pinbal pinbal cho tho nonstop mix tim ngh gam jurass pork con cho tho gam blood nonstop girl kore party nightclup part gam vui gam cho tho nonstop sau mix gam ninj cho tho nonstop chuy remix gam fieldrun cho tho gam anh chi tranh cho tho nonstop hoa phim chi phim phim phim chi phim phim gam offlin android gam offlin android gam offlin android gam offlin android gam offlin android gam offlin android gam onlin android gam onlin android io trong avat top cao trong lmht ngh ngh nhi thu window chuy kho trong ninj school chung sao con khi top cung khi con tan tim qua khi qua nhau thu nhau avat auto prem anh mob army ninj school prem teamob onlin team mob army teamob phong truy gam big on onlin teen teen gunny gam bigkool onlin gam onlin gam offlin gam offlin hay gam gam loft kho gam fre shop kho gam tuy kho gam vai hay kho gam kho gam chi thu kho gam kho gam vui hay gam s60 gam cho duy brows duy facebook zalo chat zing mp3 onlin tra xem youtub googl map photoshop mod edit jav tho s60 gam onlin android gam offlin android gam mua item thu android them android android thu android apk ngo play gam io jailbreak gam offlin cho io io cho io kho appl jailbreak io thu iphon gam window phon soft cho window phon thu window phon gam tuy zalo tri kem jav thu gam onlin autoclick gam android cho jav jav apk jad apk hac phon s40 hac phon s60 mod gam jav onlin thu facebook tin hay them giao flash tho trol facebook chu tho mp3 video thi nick teamob truy teen truy tranh truy truy hot girl sao tim thu trang thi kho rss wordpress phuthobay pro wap hay gam onlin wap gam tho wap mobl phuthobay pro phuthobay pro wap hay gam onlin phi cho mobl
p102
S'Games'
p103
tp104
a(Vvideo saf tour partn memb contact blog liv erot chat room london dat award report system scam fak cooky policy term condit w3c faq delet account fre onlin adult dat mess pict liv chat flirt dat zero cost limit restrict whatsoev fre sex dat websit adult dat fre sex hookup catch
p105
S'Adult'
p106
tp107
a(Vvoorwaard priv policy klik hier al profiel bekijk debbsk butterfly72 jeanie78 nessie77 jammy7 destand chookst eventj parismiss biancastout oktiepuss kippie61 sarahvanb missrosell cathyleents rox9505 marietj19600316 guitigekel marjolein64 whitn melind loltrap19750423 alesxxs naemy noalin ohmygood anders0m jenday noekie91 dada_jay doorrrrnrooss an_tjuh brietje8105 anna918001 fennad caitlin840806 xxxjackyxxx stourertinb beckie miffym reetsjel kikihot lientjewild felizzz think2c kuunts xxxpatty melina8004 lietje93 ergstiekem ellis80 wolverine76 mierwilhet gennerrr natas66 jipsie1979 fluweeltjex klaasjebrom w_iessie hoty wachtwoord verget on nieuw bedrijfsgegev prid flirttip priv voorwaard contact webmast
p108
S'Adult'
p109
tp110
a(Vdimasmirnov dimasmirnov dimasmirnov mus dimasmirnov cent studio dimasmirnov mus dimasmirnov dimasmirnov mus dimasmirnov sia cheap thrills dimasmirnov mus appl iphon ipad dimasmirnov gadget angry bird dimasmirnov adel dimasmirnov mus mass attack dimasmirnov mus youtub dimasmirnov mus appl dimasmirnov gadget dimasmirnov dimasmirnov mus dimasmirnov googl dimasmirnov gadget instagram dimasmirnov lifestyl dimasmirnov lifestyl dimasmirnov mus instagram dimasmirnov gadget dimasmirnov dimasmirnov lifestyl dimasmirnov mus dimasmirnov dimasmirnov lifestyl on direct dimasmirnov eagl dimasmirnov mus stacy 5sta famy ikr ass nastas cappucinno nat feat kristin edg storm djs feat arth denny natanik lx24 ikr marq markuz den manhat killah feat izabel jedy feat ilail karin next andrea feat feat bahh tee twit facebook livejourn megalyr javascrib megalyr
p111
S'Arts_and_Entertainment'
p112
tp113
a(Vimtransl set web bas multil tool design remov langu barry across world wid web new vert imtransl comp transl transl speak imtransl googl chrome firefox french transl span transl germ transl it transl portugues transl russ transl transl info info info info afrika alb arab belarus bulg cat chines simpl chines tradit cro czech dan dutch engl eston filipino fin french gal germ greek hebrew hind hung iceland indones ir it japanes kor latv lithu macedon malay maltes norweg pers pol portugues rom russ serb slovak slov span swahil swed tha turk ukrain vietnames welsh yid hom new download contact solv guid webmast term us priv policy set web bas multil tool design remov langu barry across world wid web imtransl net transl mind imtransl chrome perform inst transl word phrases text web pag us googl transl serv imtransl support langu detect back transl text speech set custom latest feat ad imtransl transl hist imtransl firefox on popul high demand ad on firefox receiv highest rat num us imtransl download mil tim imtransl oper perform inst transl word phrases text web pag imtransl support langu detect back transl text speech dict transl hist set custom
p114
S'Reference'
p115
tp116
a(Vestrellato lista hum noticia contacto menu famoso que son abierta homosex bisex read soko razon por las que rumore que nuev nov krist stewart read nea producto of gir justin bieb tien vergonzoso er ortogr fico read star war episodio vii fit foto los nuevo personas read famoso que son bajo que cre read madonn beb tequil sobr escenario rueg alguy por fav dur concierto read kim kardash dura criticad por peligroso video hij nor west snapch read celebridad que luc real mal sin maquillas read las muj mas rica del planet read los peor fail padr histor read old post plac load estrellato back top lista hum noticia contacto hay que una poca celebridad que aseg ser bisex pued que sorprenda descubrir que algun tus favorita prob est est estrellato estrellato famoso que son abierta homosex bisex pierda entretenc chica sexy hum etc gueno facebook
p117
S'Adult'
p118
tp119
a(Vskip menu skip cont skip foot publ not sit map staff mail welcom kan intern airport ltd welcom kan intern airport ltd welcom kan intern airport ltd welcom kan intern airport ltd welcom kan intern airport ltd scrutinizer report mgt post ballot agm not egm not sou ind bank fed cror debt compon cost may pmc work itb atc assocy work award kitco ltd amount cror includ serv tax nomin bas half year comply report propos kan intern airport kan jun novemb not invit tend supply instal test commit ring compost pip compost unit household level mattan municip not invit tend supply instal test commit biogaspl household level mattan municip hom around kan right inform press room org chart photo gallery car arch visit count off websit kan intern airport ltd copyright pow keltron right reserv hom welcom kan intern airport ltd
p120
S'Travel'
p121
tp122
a(Vtheo ngh theo theo gia internet onlin med ngo truy kho may cao gia thi thu thi ninh sinh kho trang lifestyl xnk ngo nghi chuy giao ngh cao ngh sinh xanh nghi nghi phi phi nhu phi thu xem gia sinh nguy gian gian gian onlin noel valentin minh nai gia lai ninh thi giang giang ninh tre thu mau cao giang giang nam giang kon tum lai cai long nam ngh ninh ninh thu nam ninh nguy thanh giang vinh tuy quang long ngo ____________ xem sinh sinh sinh sinh sinh nghi nghi sinh sinh kinh nghi lao lao ngh linh hcm kinh doanh kinh doanh sinh ngay 9tr internet tuy tuy sinh tin 7tr ninh gian 200k tuy nam coopmart bigc metro maximart tuy thu inh 8tr tuy nam tuy 9tr tuy nam kho nam kho thu thu chuy cho sinh 6tr tuy ctv tin onlin kinh nghi 5tr 10tr tuy ctv tin onlin kinh nghi 5tr 10tr cho sinh cao gian tri gian 9tr 150k cty tuy 9tr tuy 9tr tin 9tr tin kho tuy kho tweet chu tim viec cam nang tim viec qua tang cuoc song bai hoc thanh cong thang tien nghiep tim viec lam nguo tim viec nha tuy dung tim ung vien cam nang tuy dung cre cod mang tim viec viec lam tuy gap tuy sinh thiet thong minh san pham thong minh gia phap thong minh pin mat tro pin nang luong mat tro may lanh nang luong mat tro hec quyn trang thi tuy tuy quy kho tuyendungsinhvy hecquyn ltd tuy ngvi theo ngh tuy ngvi theo tuy ngh tuy tuy ngtheo tin tuy sinh tin cho sinh sinh giao sinh trang tuy cho sinh xem
p123
S'People_and_Society'
p124
tp125
a(Vtrack ord past ord wishl profil story conceiv team blog track ord past ord wishl profil zov priv policy term condit sal onlin shop shop onlin men shirt men tee zov zov miff someth think could don someth bet list happy improv pleas let know
p126
S'Shopping'
p127
tp128
a(Vpar find nam baby nam gen sibl nam calc find mean nam find definit nam find origin nam find gend nam find rash nam find nam numerolog find relig nam twin nam calc list nam simil find vary nam dep inform nam nam mean find surnam mean surnam find origin surnam list simil surnam nam compat zodiac compat birthday compat chines star sign compat chines bir dat compat zodiac astrolog chines astrolog find star sign nam numerolog find birthston find lucky numb col day met hour find auspicy ston bmi calc body fat calc blood sug convert bmr calc waist hip ratio cal calc cal food baby grow calc id weight calc weight man volum weight due dat calc fertil calc ov saf period calc fet grow calc fet siz calc fet week week fet mon mon pregn trimest sign symptom pregn pregn test bir control gend calc cloth convert sho siz convert weight planet ref desktop mobl baby girl nam baby girl nam ind baby girl boy nam hindu baby girl nam pars baby girl nam muslim baby girl nam jain baby girl nam christian baby girl nam buddh baby girl nam sikh baby girl nam baby boy nam baby boy nam ind baby girl boy nam hindu baby boy nam pars baby boy nam muslim baby boy nam jain baby boy nam christian baby boy nam buddh baby boy nam sikh baby boy nam twin nam girl boy twin baby girl baby boy girl girl twin baby girl boy boy twin baby boy twin nam calc baby nam gen sibl nam calc nam search tool nam rash nam rash nam god goddess nam planet sanskrit boy nam nam nakshatr sanskrit girl nam god nam chines astrolog goddess nam zodiac astrolog reg nam marath baby nam gujarat baby nam punjab baby nam kannad baby nam tamil baby nam bengal baby nam telugu baby nam ind baby boy nam malayalam baby nam ind baby girl nam intern nam afr engl pers scot bulg arab french it span dutch bibl germ japanes tha nat am chines hebrew kor turk portugues dan indones russ vietnames famy nam ind surnam intern surnam famy nam stat famy nam langu hindu surnam find surnam muslim surnam find surnam inform christian surnam find origin surnam top nam hindu nam engl nam russ nam muslim nam french nam germ nam christian nam chines nam kor nam sikh nam arab nam it nam japanes nam am nam facebook us nam rhym short story nursery rhym aesop fabl sinbad ind mytholog jatak tal tenal ram fairy tal panchatantr akb birb buddh fabl arab night vikram beta childr photo gallery person fant dress school competit laziest fath birthday famy school colleg brav kid portrait mommy nat bor kid friend pap zoo strong kid pet picn flow fish troubl par par tip zodiac person nam ceremony teen schooling toddl child pregn get pregn sign symptom pregn test test calc due dat trimest mon mon week week bir control diff method contraceiv effect heal effect econom faq method comparison saf period ov heal height weight chart body fat index man weight weight loss tip underweight norm weight overweight obes hom nam surnam tool sit map contact priv policy disclaim bookmark ind child nam feat largest collect nam surnam mil transl web pag consist baby nam ind intern origin twin nam nam rash nam nakshatr nam planet reg nam famy nam top nam par tip rhym story photo gallery heal artic nam search tool surnam search tool nam astrolog heal calc pregn calc baby nam gen compat calc lif styl calc many tool desktop mobl form nam baby nam boy girl ind intern baby nam baby girl nam
p129
S'Reference'
p130
tp131
a(Vlog sign onlin gam download gam shockwav gam dai gam sal jigsaw puzzl word hid object strategy match rac tim man card board adv act shoot car rac sport famy kid best dai gam web dai snoop dai jigsaw dai diff dai snoop icon see dai gam dai gam see dai gam dai jigsaw dai diff dai snoop jigsaw travel picturiff dai snoop col word roundup dai snoop icon dai jumbl word roundup challeng picturiff fact fig dai snoop silhouet prevy next word gam see word gam picturiff word roundup dai jumbl word roundup challeng picturiff fact fig word roundup frenzy dai word search word roundup hollywood edit crossword word wind find jumbl crossword word roundup bingo prevy next strategy gam see strategy gam plant zomby raft war gardenscap bejewel mahjong pand burg shop hous flip dai mah jong jojo fash show world tour word roundup pardn din dash cub prevy next jigsaw gam see jigsaw gam bon jigsaw jigsaw challeng puzzl pop fix jigsawmak postcard prevy next dai gam download gam puzzl gam jigsaw gam sport gam card gam board gam hid object gam match gam shoot gam word gam adv gam tim man gam famy kid gam mus photo car rac gam act gam strategy gam escap gam escap gam play panda panda play frescoz frescoz play crazyc crazyc play lightybulb lightybulb play nekr psar part nekr psar part play whe whe play black jack puzzl black jack puzzl play headcrab invas headcrab invas play presid candid everyjo presid candid everyjo play spac duuud spac duuud play pow mahjong tow pow mahjong tow play new old see spirit mystery song phoenix hid object try fre buy onlin gam download gam act gam adv gam card board gam jigsaw gam kid famy gam mus photo gam puzzl gam rac gam shoot gam sport gam strategy gam word gam gam flash gam dress gam contact help advert term us virt cur purchas agr priv policy copyright comply policy play fre onlin gam shockwav off best puzzl gam cook gam dress gam car rac gam new gam every day gam fre onlin gam download gam play gam shockwav newest onlin gam dai snoop
p132
S'Games'
p133
tp134
a(Vcurso grat id cat reg strate curso con deo salud psicolog relac humana contabilidad finanza market venta organizac empres recurso humano direcc liderazgo indust rea leg administrac secretariado trabajo seguridad lab profes administrac blic dis ofim tic softw programac internet im sonido hardw mantenimiento seguridad inform tic telecomunicac ingeny inform tic costur confecc guitarr art stica manualidad hog truco til dibujo pintur bricolas otro hobby decorac dis papiroflex origam hog decorac bisut joy canto voz piano teclado fotograf retoqu otro instrumento instrumento viento jardin planta animac fiesta teor mus bail danz mag ilusionismo bat juego educac histor ciencia cultur comunicac relig literatur lengu esp ol bellez maquillas mod cocin bebida deport ingl italiano frant esp otra lengua portugu japon alem ruso cat gallego rumano chino eusker holand griego georgiano fin rab medio amby anim agricultur ejemplo libro diario libro may clasificac las transacc comerc ejemplo fich resum homofono con puntada par bord ejemplo justificac proyecto objetivo un cart comerc uso dis libro diario ejemplo acta reun tejido par beb aprendizas basico del dibujo fras despedid derecho literario curso sobr bordado mano tipo tono voz aprend confeccion rop grat caracteristica las sangria word curso electricidad grat ejemplo planteamiento problem ejercicio bal comprobac como redact inform actividad cal orig electromagnetico uso dis libro may cort pelo video grat cuenta nomin sus ejemplo curso grat redacc ejercicio libro diario libro may cual son las caracteristica basica cart comerc como hac un fich text curso grat mej valorado visto tic educac inform tic comunicac ens anz aprendizas window reinici apag hibern suspend bloquear con solo clic famil definic evaluac funcionamiento famili ejecut como administrad window prevenc soc del delito medida seguridad ciudadan xico prevenc soc del delito xico ensayo brev agreg elimin programa inicio window derecho romano concepto sico restaur sistem window recuper dato disco duro sociolog violenc mecanismo defens soc sincroniz carpeta con skydr como cop seguridad window skydr window almacenamiento nub engord pollo parrillero galpon automatizado cambi icono carpeta window personaliz cuenta usuario window crear configur elimin publicidad instrumento market photoshop recort foto gen con medida espec fica photoshop efecto texto con objeto intelig photoshop reemplaz gen edic objeto intelig vino rosado caract stica carlo mart nez garc loygorr ion goikoetxe stell mar eiro qui ser aut destacado reg strate grat lee nuestr pol tic cooky curso grat onlin email curso idioma ingl grat frant curso cocin curso gratuito curso onlin formac gratuit curso grat mailxmail ejemplo libro diario libro may curso bienest salud salud aut destacado
p135
S'Career_and_Education'
p136
tp137
a(Vwork account testimon view ful rang fre gift read xpango work reg memb video xpango click priv policy term contact faq blog affy testimon fre mobl phon gam consol mp3 play xpango limit join xpango today xpango welcom fre gen xpango fre mobl phon gam consol xpango connect xpango fre iphon xpango count
p138
S'Shopping'
p139
tp140
a(Vwatch eurosport hom footbal transf premy leagu cup champ leagu europ leagu lig sery bundeslig ligu mls superlig wom world cup cop ric champ leagu on leagu two scot footbal euro leagu cup fif conf cup cop libertad leagu hom ten atp calend atp rank wta calend wta rank aust op french op wimbledon op dav cup fed cup hom calend result tabl driv hom motorsport wrc motogp wtcc hour man erc wec superbik dak formul hom rugby world cup premy guin pro top test match six nat europ cup challeng cup four nat sup rugby hom cyc calend result tour frant giro ital vuelt esp hom athlet diamond leagu world champ world indo champ europ champ euro indo champ hom golf world rank europ tour pga tour mast tourna brit op op uspg ryd cup hom basketbal nba euroleagu eurocup leg lig acb pro eurobasket eurobasket wom world cup hom swim world champ world champ short cours europ champ europ champ short cours hom wint sport alpin ski biathlon nord combin cross country ski ski jump ic hockey fig skat curl spee skat bobsleigh video hom univers sport video hom sport video hom footbal ten motorsport rugby cyc equest rugby leagu athlet snook box cricket golf basketbal swim wint sport univers sport fent hors rac buzz academy mobl ap contact eurosport priv policy leg not footbal ten motorsport rugby cyc equest sport video regul scor day knockout stag regul scor tabl 4th round group stag day scor tabl day scor tabl first stag day knockout stag day knockout stag day scor tabl day scor tabl day day scor tabl day day scor tabl day scor tabl day day scor tabl apertur day knockout stag day scor tabl day scor tabl day scor tabl day scor tabl day scor tabl day knockout stag day knockout stag day scor tabl day scor tabl day scor tabl day scor tabl day scor tabl day scor tabl day scor tabl day scor tabl day knockout stag 2nd round draw 2nd round 3rd round draw tom adam scor tabl alex hess england germany preview vardy spectacul say low all butland start england germany annount england best bas premy leagu form alex chick desmond kan tom adam scor tabl scor tabl ben cuzzup scor tabl tom adam clark seal win switzerland doyl stretchered doyl tak hospit leg injury know follow latest sport new liv scor result eurosport europ lead sport eurosport sport new sport scor sport result sport video eurosport footbal euro pap ozil lig wish spark real barc scrap euro pap ozil lig wish spark real barc scrap
p141
S'News_and_Media'
p142
tp143
a(Vemploy new school job bank job univers job colleg job ptu result exam scor card onlin ptu com look new look new ptu result bstc ent exam counsel apply onlin bstcmdsu2016 com look new look new admit mlsu admit card exam rol onlin mlsuexam com look new look new admit card rsc result exam mark card rkcl vmou com look new look new rscit mahapol admit card exam rol onlin mahapol gov com look new look new admit card stat punjab lottery week result draw win com result look new look new result rojg samach hind march april patrik rojgarsamach gov com look new look new rpsc admit card exam rol rpsconline rajasth gov com admit card look new look new admit card uniras admit card rol exam cent list uniras com admit card look new look new admit card pna architect vac com apply onlin look new job punjab priv job nhrc job apply form nhrc nic com download apply form advert look new job 12th pass job new delh stenograph ganpat visars ganesh chaturth sms marath engl hind happy wish com http lalbaugcharaj http loksatt http lalbaugcharaj http khetwadichaganras khetwadicha_ganraj_live_broadcast html http gsbsevamandal org http loksatt http andhericharaj livedarsh html look new old post hom govern job teach post sarkar naukr const post contact sarkar naukr hind result admit card datesheet answ key cut off merit cre websit mas templ blog fre sarkar naukr hind new sarkar naukr websit recruit port ind cov latest new admit apply form exam dat alosn admit card result circul may apply onlin cur govern vac ind cent stat job giv view find typ car rel serv govt job priv naurk sarkar naukr hind result admit card datesheet answ key cut off merit ptu result exam scor card onlin ptu latest new ganesh chaturth sms govern job teach post
p144
S'Arts_and_Entertainment'
p145
tp146
a(Vhom daft jen permain deposit withdraw per bantu casino sbobet liv casino onlin ag casino casino onlin dewavega casino sbobet liv casino onlin ag casino casino onlin dewavega kebijak cooky dewavega dewavega kebijak privas kebijak cooky permain fair troubleshoot sitemap dewavega adalah promot casino onlin terbaik deng liv deal terpercay fair dan merupak salah satu terbes as saat in bergabunglah casino sbobet liv casino onlin ag casino casino onlin dewavega us login casino sbobet liv casino onlin ag casino casino onlin dewavega menawark berbaga pilih permain onlin gam dan liv gam bacc blackjack roulet sic dan masih banyak lag maink liv gam deng liv deal langsung dar brows and dan rasak pengalam bermain gam onlin terbaik
p147
S'Travel'
p148
tp149
a(Vbananaidol lik hom run man banan infinit challeng banan law jungl banan got marry banan got marry joy banan got marry banan week idol banan pleas refrig banan strange bedfellow banan mask sing banan showtim infinit banan twic priv lif banan lif dar talk show hello pleas refrig huiyeol sketchbook hid sing non summit talk heal camp twic priv lif lovelys monst right burn you beauty stat show song snl kore find laugh peopl mybaby phys vary fashion tal scout mary friend hous two yoo sug man lat night food meet week idol radio star get beauty tax brom new hous sel tim showtim infinit kor star ol secret recip happy togeth problem man star coupl mickey mous club cod friend flow abl mak know broth three king liv alon twic law jungl world chang quiz show mus bank styl log produc devil runway infinit challeng kung shaolin rac littl televid strange bedfellow immort song tasty road perform art baby got marry star king pop star run man inkigayo dream team on night day mask sing sect real man comedy big leagu gag concert kor spec new year pop kor ceremony superm back fashion body show tal scout chin hotel sel tim let eat spec mary tast oth hunt three meal day friend flow abl mak showtim infinit know broth sbs three king school pop star stardust kung shaolin school song beauty stat show express you express unpretty rap star secret weapon din bar rom week kore fash king whit swan lif dar let let beauty flowerh4 ao wond day tak car dad yam return look styl sixteen crim scen mnet dant alon lov brav famy steal man eco vil anim excit ind see voic zodiac tut mercy anim farm bachel party sup idol chart show sing room start work mix match hello hello stranger dad going shinhw show mast chef everybody get styl show money geni entertain kore next top model mus talk sup star star flow sns sns expedit fly first mag ey friend macau taiw man sev tast law city shar hous jessic kryst kiss cry hero mnet thing show vitamin beatl cod get beauty hello baby sesam play school vary liv hom four men wom got marry glob strong heart sist flow infinit girl invinc you rom idol twic priv lif gfriend lovelys showtim infinit ral 1cm gfriend styl taeng9cam lovelys diary ep8 red velvet ar ar handsom flow girl cast nav liv eight beauty op ao snsd channel channel snsd 4minute video clc queen gam yur cut ol map sixteen surplin snsd amaz taetiseo kar project pink infinit sist midnight hong kong monst right exo channel showtim infinit teen top air new begin vixx season e34 got2day got7 ep11 up10tion btob beat seventeen project com ftisland real got7 excit ind on night study fly shinhw show sup junio guest hous infinit infinit king rank bts am hustl lif exo pink infinit got7 btob xoxo exo win 20th century boy mnet win channel bts block minut teen top nev stop sbs mtv diary est ep1 school ral styl taeng9cam two young heart tag lik yur cut ol map gogo sist hologram har fre mon stupid mnet rain effect mnet bananaidol priv policy leg disclaim report problem contact bananaidol bananaidol bananaidol bananaidol bananaidol hot show today banan ago
p150
S'Arts_and_Entertainment'
p151
tp152
a(S'bank ind'
p153
S'Finance'
p154
tp155
a(Vimport link liverpool birmingham new york city glasgow dublin amsterdam krab koh phi phi ayutthay phuket shangha seo kanchanabur london par hat ya chiang rai cha duba sch tzberg sydney hano beid las vega jakart rom osak manil guangzhou san francisco amsterdam melbourn los angel siem reap kyoto berlin tokyo nuremberg new delh munich pragu phnom penh vienn mil barcelon frankfurt main chicago mumba edinburgh istanb ven boston auckland miam langkaw orlando trivago trivago argentin trivago austral trivago belg trivago brasil trivago trivago canad trivago esko trivago chil trivago colomb trivago danmark trivago deutschland trivago ecuad trivago trivago esp trivago frant trivago trivago hrvatska trivago ind trivago indones trivago ireland trivago ital trivago magyarorsz trivago malays trivago xico trivago nederland trivago new zealand trivago norg trivago sterreich trivago per trivago philippin trivago polsk trivago portug trivago trivago trivago rom nia trivago trivago schweiz trivago singap trivago slovenij trivago slovensko trivago sou afric trivago srbija trivago suom trivago sverig trivago trivago rkiy trivago ua trivago uruguay trivago us trivago nam trivago trivago trivago chin malays frant austral indones sou kore germany ita ind spain switzerland californ nep austr taiw new zealand turkey czech republ lao swed russ mexico greec denmark facebook twit instagram googl plu youtub pinterest linkedin mobl ap search checkin travel inspir sit map mil visit us trivago every mon search comp hotel pric hotel book sit trivago world top hotel pric comparison know everyth hotel trivago world largest hotel search hotel avail star seem problem internet connect pleas refresh pag us button
p156
S'Travel'
p157
tp158
a(Vadv search login reg brows tor popul tor today tor yesterday tor movy tor tor mus tor adult porn tor softw tor gam tor anim tor book tor pict tor mobl tor tor search cloud sit stat commun faq view extrator east competit end sunday ria blam youtub low art royal pol charg man circumv pir sit blockad household subscrib video streaming serv fbi found way unlock iphon without appl help dutch ant pir ag shut tor releas group russ want ban discuss pir blockl circumv netflix start send dmca takedown request fight illeg broadcast peopl arrest best vpn big vpn comparison chart view view view view view view extrator today tor yesterday tor view deadpool 720p hdrip x264 aac etrg act batm superm dawn just cam xvid dingo act star war episod vii forc awak 1080p bluray dts x264 etrg act rocky handsom hind 1cd dvdscr x264 aac hon3y bollywood kung pand 1080p webrip x264 aac etrg anim nat born prankst dvdrip xvid ac3 evo comedy curs witch tre brrip xvid ac3 evo hor batm superm dawn just cam x264 unknown act id hdrip xvid etrg sci backtrack 1080p bluray x264 dts jyk dram view grim s05e14 hdtv x264 fum ettv grim second chant s01e11 hdtv x264 kil ettv sleepy hollow s03e16 hdtv x264 fum ettv sleepy hollow black sail s03e10 webrip x264 fum ettv bit s03e07 hdtv x264 kil ettv bit stan lee lucky man s01e10 repack hdtv x264 tla ettv slash s01e05 hdtv x264 bajskorv ettv grim s05e14 hdtv xvid fum ettv sleepy hollow s03e16 hdtv xvid fum ettv real tim bil mah hdtv x264 batv ettv view mp3 new releas week glodl mus zayn mind min target delux edit pop cub flac tfm latin artillery penal perceiv 320ak met young thug slim season itun m4a hunt frg hip hop michel issu vog itun m4a hunt frg david essex best flac soup flac elis 320kbps pir shovon pop zayn mind min target exclud edit 320kbps pir shovon pop paul simon rhythm saint flac flac view gat episod complet 720p lucifer22 anim lolicon nimo astarot omoch 1080p x264 aac anim osamu musash h264 mut anim s01e11 mult 1080p bluray x264 shinigam anim animerg boku dak ina mach eras complet 1080p khatake2 anim animerg naruto shippuud 10bit 720p jrr anim god eat episod complet 720p lucifer22 anim paprik 720p x265 hevc lucifer22 anim view atl quest solitair mahjong card wendy99 maraya21 window vampir legend count new orl collect edit window flow fiest match puzzl wendy99 maraya21 window infern hel veng multi5 upload naswar zohaib window view learn python weekend python begin ebook improv learn ebook raspberry begin 6th edit ebook giant sea tel gnv64 magazin delicy pizz recip ronin99 ebook hunt thompson rum diary pdf soup ebook sin city com complet ronin99 com ward jon sandtroop story pdf soup ebook emb cookbook ebook gun digest march pdf zeke23 magazin view youtub video download pro patch 4realtorrentz window video ap youtub mus download ser 4realtorrentz window dvd tool iobit uninstal pro multilangu port robert window mast pdf edit mac mac599 mac tot video2gif mac mac599 mac ytd video download port robert window imoby anyt mac mac599 mac record mac mac599 mac adob acrob pro lit port robert window view breathtak nat wallpap 2560x1600 set wallpap near nak sexy bikin girl eclips wallpap photo poonam pandey mak lust wallpap sherlyn chopr hot sexy pic wallpap near nak pict model beth humphrey eclips wallpap boob girl cant hold dress pict set wallpap best anim wallpap set wallpap adrian lim sens erot pict pack wallpap amaz landscap wallpap mix res set wallpap gemm arterton hot beauty pict pict pict view tunein radio pro liv radio build softw android shazam ent softw android talk tom mod unlimit money apk xpoz gam android eset nod32 mobl sec amp antivir prem apk int key ssec softw android view milf lik big park sways gfs mom want bad brazz new march video as addict new harmony film dvd rip dvd schoolgirl stepsist pur xxx film new web split scen video diabol step mom seduc dvdrip split scen new releas march video girlfriend moth sweet sin web split scen new dvd joymi august am cal lov new video fil orgasm pur pass xxx web split scen dvd sist big round ass digit sin new march split scen pre releas dvd che young wiv alex romero xxx new releas web split scen dvd bigbuttslikeitbig brazz angelin valentin two bush ass 1080p video view learn linux command lin bas train gmail adv tip trick train introduc kal linux train pow posit system jason capit train cre amaz superhero adob photoshop train cissp cert train domain train video train law jason capit train lov cod jason capit train design pattern cre train az develop train hom brows tor upload tor stat for faq login copyright extrator extrator world largest bittor system new popul tor
p159
S'Internet_and_Telecom'
p160
tp161
a(Vinicio como baix qualidad dos film map sit tutoria como assistir film dual audio como assistir film part como cri dvd usando convertx dvd essencia split vlc med play 7zip convertx dvd dmca anim art marcia aventur biogr fico catastrof dia dia rom ntic crim docu rio dram epico esport europeu fantas faroest fic cient fic guerr hqs infantil mus nac ory rom suspens ter download cinza passado legendado dvdrip download axfil admin download universidad muito anim legend dvdrip download axfil admin download meu outro dual audio bdrip download axfil admin download olh par baixo dublado dvdrip download axfil admin download nunc morr sozinho dublado dvdrip download axfil admin ltim download cinza passado legendado download universidad muito anim legend download meu outro dual audio download olh par baixo dublado download nunc morr sozinho dublado download ving alexandr dual audio download rosa selv dublado download cad viv como quer legend download somo am legendado download digo sil ncio dublado download film baix tis dublado legendado lan amento gra ssico antigo bdrip dvdrip av rmvb mkv mp4 baix logo baix film dublado download grat dvdrip baix logo baix film dublado download grat dvdrip download cinza passado legendado tamanho 899mb nero dram rom formato av qualidad dvdrip audio ingl legend rar ano lan amento
p162
S'Arts_and_Entertainment'
p163
tp164
a(S'supervivenc aventur escap parko casa construcc min juego pocket laboratorio quimic map par minecraft tweet sup cub bro map par minecraft tweet slim warp parko sobr slim map par minecraft tweet tnt escap map par minecraft tweet redston troubl map par minecraft tweet divers biom parko bioma map par minecraft tweet insert cub map par minecraft tweet stag parko map par minecraft tweet ltim aventur casa construcc escap map supervivenc mapa mapa minigam min juego parko pocket puzzl random supervivenc ter mapa par minecraft rmino cond descarg instal mapa par minecraft esp mapa par minecraft descarg instal mapa par minecraft esp laboratorio quimic map par minecraft nuevo mapa'
p165
S'Internet_and_Telecom'
p166
tp167
a(Vsexencount term condit priv policy prev next hom search help term us priv policy record keep requir comply stat clos forgot password reg sexencount best plac fun soc hook meet peopl onlin chat much sexencount spic lif discreet encount reg fre fre everyth join meet someon mat thousand singl wait meet liv onlin dat sexencount sexencount glob onlin dat serv singl find rom almost every country around world meet singl are hop try onlin dat
p168
S'Adult'
p169
tp170
a(S'inicio grupo deltron producto distribuid login servicio cnico man cont cteno ac8gbusbcz50cpe nbhpl9m06la nbhpl9l90la cpam4a10 7890k olvid contras busqued avanzad comuniques con nosotro infodeltron deltron infodnet deltron deltron part computador notebook tablet servid accesorio per seg descrip marc codigo cod fabr minicodigo busc busqued avanzad'
p171
S'Career_and_Education'
p172
tp173
a(Vadtech rubicon ligat doubleclick appnex yieldr bidswitch mediama tmg turn criteo adform sociom googl rocketfuel thetradedesk adar quantcast amazon tubemog myth groupm serv openx zoom blueka valueclick emedy xax facebook twit youtub vimeo flickr tumblr img een kudtkoekiewal omd dat moet van kudtkoekiewet wat doen cooky functionel cooky ak supermegahandig cooky scroll omla voor meer informaty
p174
S'Arts_and_Entertainment'
p175
tp176
a(Ven javascrib support research titl pag mak cit guid ap teach support login sign research titl pag mak ap teach cit guid support login sign mla ap chicago websit book video film journ databas opt cop past man cit help easybib pro advert ap top idea contact cit guid scholar academy imagin easy solv llc priv policy term us autom work cit bibliograph format mla ap chicago turab cit styl support 7th edit mla easybib fre bibliograph gen mla ap chicago cit styl gen cit mla ap chicago form bibliograph sav hour mak work cit pag autom partn sourc typ
p177
S'Career_and_Education'
p178
tp179
a(Vutam feld mengena feld logo terdahulu mant menter mant pengerus mant pengarah bes pers feld korp lat belakang mis vis logo lembag pengarah direktor jab pejab cart organisas lagu anugerah kecemerlang piagam pelang pengurus pejab pengarah bes unit audit dalam unit undang undang unit pengurus risiko integrit unit komunikas korp timb pengarah bes pembangun ekonom gedung mak negar gmn peladang pembangun usahaw hal ehw tanam semul timb pengarah bes pengurus pentadbir kewang sumb manus pengurus tanah timb pengarah bes pembangun komunit pembangun komunit inovas pembangun generas baru pendidik pengurus wilayah sumb foto video audio muat turun 1suara booklet feld hubung kam ibu pejab feld pejab wilayah rancang maklumbala program gempak keluarg feld astro kerteh lih sepenuhny perpindah unit latih institut semarak feld bang bul keusahaw jab pembangun usahaw lih selanjutny kenyata taw hingg lih sepenuhny kenyata taw hingg kenyata taw hingg lih selanjutny start prev next end mahu feld jad kuas bes ekonom feld baga aur deng teb feld unit sas satu trof star jengk kebangga feld unit stad jengk penta akhir lig feld stad baharu suntik semang pasuk feld unit feld bin rumah pahang lih selanjutny govern day kump feld program ak gempak keluarg feld cyc challeng pelanc pertubuh kam anak feld kaf malays ikof maklumbala inovas penyat statistik webmail lih selanjutny penaf pet lam das privas das keselam soal lazim top makl bala ikl jaw kosong hubung kam program kasih feld 1suara adu cadang pinjam komput tabung kebajik ess feld singl sign webmel drdok penyat kpf mss bantu pinjam pendidik bantu komput program aktivit feld pinjam pembes rumah bantu khair kem tabung kebajik lembag kemaju tanah persekutu feld lembag kemaju tanah persekutu feld utam capt display non
p180
S'Business_and_Industry'
p181
tp182
a(Vacc der menu princip acc der contenu acc der pied pag ferm savoir plu inscrib connect continu connect clos sess particu professionnel entrepr com ant collection chronopost banqu post post mobl docapost mediapost viapost geopost asend group post candid post rubr courry col produit serv calc tar offr cial nem conseil prat chart eng contact serv consom banqu post offr banqu post contact banqu post acc der sit banqu post vie num riqu serv num riqu personnel conseil prat contact serv consom post mobl offr post mobl conseil prat contact post mobl acc der bout des timbr person command des timbr cour command des beaux timbr command des post command des cart abs nag fair gard exp dier son courry envoy un let recommand lign envoy un let lign affranchir chez soi colissimo affranchir chez soi envo chronopost express imprim des timbr chez soi quel num lect produit serv produit serv par quel num couvrir connect inscrib couvrir connect inscrib plan sit produit serv calc tar offr cial nem conseil prat chart eng contact serv consom offr banqu post contact banqu post acc der sit banqu post serv num riqu personnel conseil prat contact serv consom offr post mobl conseil prat contact post mobl condit ral util condit ral vent ment gal inform sur les cooky bureaux post les serv post pour les particu envo suiv courry col ach lign tar postaux les serv post pour les particu envo suiv courry col ach lign tar postaux suivr un let colissimo envo chronopost vos mail tout confy bar un navig
p183
S'Business_and_Industry'
p184
tp185
a(g10
S'People_and_Society'
p186
tp187
a(Vlog siss registreeru minu numid minu kuulutus minu soodustus minu deposiidid minu valikud minu bilanss sead auto kaubad varuosad kommertss idukid rud haagiselamud mootorsaanid mototransport iduautod teenus vee idukid muud iduvahendid kinnisvar gara korterid maat kid majad majaosad teenus ripinnad muu administratiivt ehit kinnisvar elektroonik telekommunikatsioon energeetik fin harid tead infotehnoloog juhtimin klienditeenind kultu meelelahut meed llumajand riig avalik hald tehnik mehaanik tervishoid farmaats transport logistik tur ivad jalatsid aksessuaarid karnevalikost mid last aksessuaarid last jal last ivad leiunurk meest aksessuaarid meest jal meest ivad naist aksessuaarid kotid naist jal naist ivad pulmariid univorm muud riid kodu aed aed istikud aknad basseinid spa dekoratsioonid elekt elekt dmed koduhooldamin tolmuimejad kodumasinad tmin ventilatsioon lambid valgust magamistub mesind bel remont seadm santehnik gitub koduba toit kollektsiooniveinid laps lapsevankrid lastem bel lasteraamatud lastetoit nguasjad ohut terv turvatoolid vahendid vannitamin muu terv ilu biolisandid depilatsioon keh er udm juust korrashoid kehakaalu alandamin ned mak massa nah korrashoid naturaaln teraap gemin parf meer retseptivabad preparaadid solaar suu piirkonn korrashoid tatoveeringud tervishoid mobiiltelefonid akud hoidjad kaablid adapterid kaitsekil korpus tagaka kotid laadijad dokid mobiiltelefonid lukaardid peakomplektid rvaklapid telefonikaardid sim varuosad muu arvutid tahvelarvutid arvut lisaseadm kaablid adapterid klaviatuurid hiir sisendseadm komponendid varuosad vakettad lupulgad lauaarvutid monitorid projektorid printerid skannerid tarvikud learvutid tarkvar vanemad esem rguseadm ipad tahvelarvutid ipad tahvelarvutit tarvikud muu sporditarb fit golf iluuisutamin jaht jalgrattad kalap lumelau suusasport paintbal airsoft ratsasport rulluisud spordijalatsid spordir ivad sukeldumin surfamin ten muu juveelitoot kellad amuletid eht lastel eht meestel etnil juuksekaunistus kaelakee ripatsid karbid kulumatrejalid kellad rud sit rvar ngad litrid prossid klambrid rmus vanemad kaunistus rismetallid muu elektroonik gps seadm gadget kaabel sat koduaudio kodukino lauatelefonid peilerid mp3 lisaseadm mobiiln audio video raadiod telerid vanemad elektroonik seadm ipod mp3 ngijad muu lis om kuulut vaat ik elektriskuut 500w autod korra remontivajavad avariil suitsuah multiliftkast kallurkontin saunaahjud teostam ehitustood autogaasiseadm kaubiku rent an rendil kaubikut rent elektriskuuterid veoteenus kaubikug hinnad kokkuleppel suur valik arvuteid garanti relmak ostam autod iga tehnil seisukorra perspektiivn projekt okolaadimassa autoremont diagnoostik toonerid tindid autoremont veebileht loomin poed lehek ljed teler puldid lai valik hyunda sant laenud targad soodsad laenud parf mid kosmeetik juuksehoold laen kinnisvar tagatisel eksklusiivs meest kellad iphon ipad ekraan vahet soodushinnag veoteenus autod relmaksug sissemaks baaridaam abilin mobiiltelefonid tahvelarvutid remont ostam tei auto parim hinnag volksw pass merc benz cdi 90kw vaskkaabel 3x1 taksojuhil ilusalong beauty salong ven metalluks autod kokkuost parim hinnag vanavar kull bed kokkuost hea hinnag soodustus statiivil laualuup varustatud taustavalguseg kokkupandav ukerata topelt tagaratast led valgustuseg moodn puutetundlik silikoon ekel salendavad termoefektig rinnahoidj saun shap garcin cambog suurep ran vahend kaalu normaliseerimisek stiils naist teksas kuulutus reklaam hinnakir kutsu pru ab kuulutus lis kuulut soovitatavad kuulutus kuulutus soodustus evapakkumin soodustust arhy ettev tetel kontaktinfo lepingud reeglid lis kuulut ost mid vajad okidok kuulutus kuulutus soovitatavad kuulutus auto okidok okidok
p188
S'Shopping'
p189
tp190
a(Vlangkah extract menggabungk fil ber part langkah resum download deng idm lewat linkdecrypt lewat internet posit kumpulbag via datafilehost via solidfil window pro integr march ful kuyha sistem operas window xilisoft video convert ultim terbaru kuyha convert multimed autodesk autocad terbaru ful vert kuyha design graph softw iobit driv boost pro ful terbaru kuyha softw system tool tool util ruf build grat terbaru kuyha sistem operas softw tool driverpack solv ful terbaru kuyha softw system tool next pes vert cek keasl window googl chrome koleks semu adob photoshop microsoft off semu vers mozill firefox window genuin boot bit window genuin boot bit window lit bit window lit bit window pro aio window enterpr fin bit window enterpr fin bit window pro fin window load daz window origin boot winr audio edit softw develop softw design web softw screen capt softw video edit softw kuyha android19 dot officialp video car extract fil ber part set shutdown otom idm fungs ad dat recovery langkah memasuk password langkah mount fil iso membu boot flashdisk langkah burn fil iso langkah mount fil iso menerapk them window membu boot iso kuyha follow blog click fre download softw ful vert terbaru window ful iso android apk fin latest vert download gam kuyha grat download softw gam terbaru window pro integr march ful top week window pro integr march ful yuk mar yang udah nunggu nunggu window pro integr march ful monggo rampok intergr maret in merupak window yang telah diintegr kan upd sampa maret
p191
S'Computer_and_Electronics'
p192
tp193
a(Vinscrir oubl connect inscrir avec facebook ident compt connect commentair membr accueil espac perso communaut livr dat sorty aut activit compl ter biblio aid booknod un dat sorty aid cgu inscr avec facebook avec san toi donn freita young adult dram rom contemporain cliquez ic pour lir extrait livr for vot pseudo livr hortens trouvez dan vot biblio que tiboud lex_lexa1 challeng personnel lex_lexa1 vot pseudo person alxcrlr challeng vid pal lex_lexa1 les les booknod navig web etc key vou plait aidez moi trouv livr bonbon quel est vot plu gro livr queenregin challeng les point bonbon for prem act blog top les raison qui prouv que vou tes peut tre crivain qui ign tour mond des librairy selexys domin maastricht pay bas profil person lect dact nom bonh selon michel ser tout les ent for act blog patrick skind parf pigeon contrebass sur amo mort comb aut cit histoir monsy som info sur rat lir av tout mond consult espac lir av tout mond manqu harl cob attend bojangl olivy bourdeaut peut pas rat gil legardiny die fran ais com fabr luchin amy prodigieus elen fer vivez mieux plu longtemp michel cym tro jour un vie pier lem tre horizon env marc levy el lui marc levy on punch man tom yusuk murat voir top complet alexandr luca coelho suzan falt barn natha rouy sergio yolf cyril dur phany grasset phan pilet ren moniot beaumont misor riku luca leverg des livr sir fat tom tout mon corp abb glin ast rix tom ast rix rent gaulo albert uderzo end liss pric gend mort bass bretagn anatol braz escadril normandy niem tom destin moscou mark jennison portrait marsh tom liss pric sir fat tom tout mon tre abb glin phobo tom les res vict dix acad mie al tom tachiban higuch les lam cardin tom pier pevel maddox broth tom beauty obl jamy mcguire prix pardon tom un nouvel vie fabiol chenet les av aliet renoir tom sect abaddon cil corre les sist tom quel chouchout christophe cazenov phan vint villeminot les sist tom air famil christophe cazenov tom ment lov estel maskam red queen tom victor aveyard angy an disparu liz coley on piec tom mal eiichiro od cid pier corneil les dragon ternit tom bain alexandr ivy les highland tom mal dict elf noir kar mary mon les guerry sil tom pier bord les malh soph comtess gur avec san toi donn freita com amo natha den arbr vie des ter dun ang lany isabel on piec tom vieux schnock eiichiro od freak squeel tom les cheva qui font plu flor maudoux coe simpl gustav flaubert crit moir tier steph king let choisy madam vign cod break tom akimin kamijyo affair baskervil tom un tud soi emm jan holloway cod break tom akimin kamijyo maison nuit mal dict neferet cast let un disparu ron massenot sorc yak riva cod break tom akimin kamijyo les sorc res sont yak riva orgueil jug jan aust cod break tom akimin kamijyo tom tom nan volum ben al bernadet despr print croqu tome4 dessert patric lyfoung lusin tom ballet ench clark monsy ibrahim les fle cor ric emmanuel schmitt cod break tom akimin kamijyo print croqu tom entremet patric lyfoung les seign ombr tom meraud des bre gen showalt tou les commentair tou les extrait booknod voir tou les nem jwalkerz camil34 lulu04 lyndar seriel emilielm ljo sauvageon dream books96 modoumbods andrae gmillet tou les membr aux sortil ges arbr aux livr labyrinth mang imaginair fantast couvrir tout les les des aut aventur espac viol langu rapail combat in curit linguist des coi los tom los hop amo connaiss veng des nat night ariston bath wyat recip woo rock star tar kan old town new info booknod nou suivr sur twit qui som nou cgu ment gal lien film cin booknod un vray exp rient lit rair partagez commentez couvrez vos lect livr demain vot biblio que vot club lect lign booknod vot club lect communaut lit rair lign livr mom acc der vot compt calendry des sorty frant mar info sur rat lir av tout mond
p194
S'Books_and_Literature'
p195
tp196
a(Vterm us new fast web bas proxy serv show adv proxy opt web proxy project priv policy term us disclaim act stat unblock access block websit brows anonym hid trac protect priv unblockaccess unblock access websit unblock websit brows anonym protect priv us fre web proxy unblock access block websit bypass network restrict brows websit anonym check websit stat brows websit priv risk websit track act us proxy serv hid trac hid address web proxy fre us fast requir reg us serv agr term us
p197
S'Internet_and_Telecom'
p198
tp199
a(g10
S'Career_and_Education'
p200
tp201
a(S'land pag kem huk dan hak asas manus republik indones'
p202
S'Law_and_Government'
p203
tp204
a(S'trang thi kho ngh tin doanh nghi web minh giang nam thanh ngh giang ninh long ninh thu tre ninh mau nam nam giang long cai vinh ninh thu giang kom tum giang nai lai thi gia lai nguy giang ninh tuy quang cao thi thi non internet may may nghi thi thi internet may gia nghi atm tho kinh doanh nghi thu mua doanh nghi tra tin tin doanh nghi tra thu thi websit tra tin doanh nghi nam caf tin tho danh doanh nghi nam tra'
p205
S'Shopping'
p206
tp207
a(g10
S'Health'
p208
tp209
a(g10
S'Career_and_Education'
p210
tp211
a(g10
S'Law_and_Government'
p212
tp213
a(Vview profil logout movy showtim new promot loc contact show com soon promot book ticket show com soon showtim new promot starclub benefit faq car loc contact term condit
p214
S'Shopping'
p215
tp216
a(Vskip cont hom daft fask cek tagih bpjs pent bpjs keseh bpjs ketenagakerja pen kasih berit kirim pertanya daft pertanya syar ketentu revolus ment bpjs ketenagakerja read bpjs ketenagakerja bpjs ketenagakerja revolus ment jumlah pesert bpjs keseh maret read bpjs keseh bpjs keseh pesert car klaim kecelaka kerj bpjs ketenagakerja read bpjs ketenagakerja bpjs ketenagakerja kecelaka klaim setujukah jokow bpjs keseh naik read bpjs keseh bpjs keseh jokow naik nger at baru dend bpjs keseh read bpjs keseh at bpjs keseh dend ahok ancam dirut rsud tolak pasy bpjs read bpjs keseh ahok budh asih bpjs keseh bangkrut read bpjs keseh bangkrut bpjs keseh apapun bayarny cek read bpjs keseh sms cent lowong bpjs ketenagakerja maret read bpjs ketenagakerja bpjs ketenagakerja cso lowong pegawa bpjs keseh ogah paka bpjs read bpjs keseh inheal pegawa revolus ment bpjs ketenagakerja jumlah pesert bpjs keseh maret car klaim kecelaka kerj bpjs ketenagakerja setujukah jokow bpjs keseh naik nger at baru dend bpjs keseh car bpjs prim bpjs pcar bpjs keseh car bpjs prim car bpjs icon on wordpress info seput bpjs terlengkap bpjs onlin info seput bpjs terlengkap revolus ment bpjs ketenagakerja setelah sebelumny bpjs keseh yang menjad laborator implementas gerak revolus ment yang gadang oleh presid jokow kin gilir bpjs ketenagakerja dimint menjad pelop gnrm gerak nas revolus ment pad lingkup kerj bpjs ketenagakerja hal tersebut disampaik oleh menter koordin pmk ibu puan maharan yang menyatak terdap tig jen landas utam gerak revolus ment read
p217
S'Shopping'
p218
tp219
a(Vhom novidad mai lida curiosidad hist ria nci tecnolog lug constru mundo anim ter creepypast entretenimento deo envy sua sugest curiosidad pessoa que tiveram car pau fingir ncer par ganh dinheiro coisa que antigo testamento bli pro voc faz todo dia problema secreto que pessoa loira nunc compreend tecnolog computad que prev futuro cust um fortun que pod acontec quem sofr acid carro exper nci quas mort tipo eqm que voc sab que existiam nci doen sinistra passado que parecem ter film ter fato choc sobr nosso subconscy registro hist ria monit beb que caus arrepio mundo anim tra mai famosa pol mica hist ria im perturbadora hist ria bastid mai hor vei aind incr vei psula tempo descoberta acid propaganda bizarra que eram veiculada dur guerr mund profec perturbador diz que is vai atac amanh que mundo pod prepar film ter rea que seu diret foram investigado caso que bul passou dos limit acabou trag dia coisa mai assustadora dita por cri ver mai fal conosco anunt expedy mai curiosidad mundo toda vida que voc tev dia enfim solucionada curiosidad matou gato porqu el sab ond procur fato desconhecido curiosidad tecnolog hist ria oportunidad explor mundo sem sair seu sof verdad inconveny sobr sco minuto at coisa surpreend sobr vil disney ser que pessoa aproveitam sco como deveriam fizemo ess mat ria coisa inconveny sobr sco que pessoa deveriam tent mud
p220
S'News_and_Media'
p221
tp222
a(g10
S'Career_and_Education'
p223
tp224
a(S'xem ngay xem thanh kho cao cao 5cm cao 7cm cao 9cm cao 11cm qua ngang qua cao cao 5cm cao 7cm cao 9cm cao 11cm trung cao trung tay chat mua ngay chat mua ngay chat mua ngay chat mua ngay chat mua ngay chat mua ngay chat mua ngay chat mua ngay chat mua ngay chat mua ngay chat mua ngay chat mua ngay chat mua ngay chat mua ngay chat mua ngay chat mua ngay chat mua ngay chat mua ngay chat mua ngay chat mua ngay chat mua ngay chat mua ngay chat mua ngay chat mua ngay chat mua ngay chat mua ngay chat mua ngay chat mua ngay chat mua ngay chat mua ngay chat mua ngay chat mua ngay chat mua ngay chat mua ngay chat mua ngay thi tuy tin juno sit map juno shop thanh giao harav juno trang nam juno cho phong trang juno trang juno trung thanh txt015 chuy tin cho giao tay'
p225
S'Shopping'
p226
tp227
a(S'nay xem anim anim vietsub onlin vua on piec vietsub naruto shippuud vietsub naruto vietsub xem anim vietsub onlin cao truy nhanh anim hot nam vui anim vietsub onlin xem anim vietsub onlin cao truy nhanh dung phong nhi anim hot anim theo nam vua on piec vietsub naruto shippuud vietsub fairy tail dragon bal gintam naruto vietsub nhi anim ang'
p228
S'Arts_and_Entertainment'
p229
tp230
a(Vhom mus video lifestyl cricket mobl ton video art bhangr movy year class exclud singl promo song ghaz gold oldy instru movy oldy pop art movy patrot song vary dant song lov song birthday song chak garb song hol song mujr song sau dard hain season lov wed song darsh khel phon sun pardes dilpreet dhillon kartoo el mang kulwind gil ya star man jol jol nick sandhu goliy nirm sidhu divert sikand kahlon last resort vary aah chak vary ptc star night zidd dil mary kom engin seet khoobs aat majh satakl singham return abh toh party shuru khoobs galliy villain kall chan sharry man punjab blam night holiday shaayran holiday tamann mer dil vil pyar vyar romeo ranjh jazzy dil aas kal puran jean tequil wakil chaandaniy stat laatu disco singh diljit mer mehboob honey singh whistl baj heropant jat jam bond gippy grew ter hero idh hai happy birthday disco singh baby dol remix auralektro vol remix fifty shad bollyood zed gurmeet kaur betab dil tamnan shadow desilicy mashup remix raageshwar anoth sellout vary revisit indipop vika reborn best mohit chauh sens emra hashm job ind sem qual chart account ind man cost intern audit sattv group ind assist man deputy man corp sal marut suzuk ind hir recruit contract plac ind techn recruit head offsh noid ind hir comply audit ind man fin admin kurl west ind urg hir fin bpo lpa ind execut fin intern audit sox ind execut fin tech mahindr bsg pun ind hir lead fin plan ind execut execut market max hospit vaishal ind head engl soc study depart ind foreign langu train ful tim part tim freel ind academ counsel nag ind counsel fem ind immedy nee jav train chenna juny mid level ind train man ind urg op ag man ind rel off seny rel off ind urg op equ adv turbh nri cli ind man account infr company ind account admin execut ind recruit recruit hcl technolog ind urg requir execut reput consult ind lov marry cut kameen glob bab ishq forev kapo son sint neerj rocky handsom shaukeen kaminay tera surro fan jai gangaas fito direct ishq sanam airlift jugn mastizaad saal khadoo sanam ter kasam job duba reg dent nurs moh sharjah reg nurs moh sharjah reg nurs dha haad duba reg nurs plac duba interv non interv cardiolog duba gastroenterolog duba neurolog duba dermatolog duba gynecolog duba web assist duba split techn duc instal fir fight pip instal techn mep forem driv abu dhab outdo salesm duba merch sal off duba draftsm duba sal person duba teach market staff abu dhab ste load forklift op duba sal man sal execut duba sit intery engin duba driv nanny babysit abu dhab fem docu control project coordin duba sal repres duba produc superv ajm account staff duba sal market execut sharjah priv policy term condit exclud job ind movy mus categ lov marry ad 17cute kameen ad 17global bab ad 17ishq forev ad 17kapoor son sint ad 17neerja ad 17rocky handsom ad 17shaukeen kaminay ad 17teraa surro ad 17fan ad 03jai gangaas ad 03ki ad 03fitoor ad 28direct ishq ad 21sanam ad 15airlift ad 08jugni ad 08mastizaade ad 08saala khadoo ad 08sanam ter kasam ad
p231
S'Arts_and_Entertainment'
p232
tp233
a(Vthing weekend trev noah liv breakfast east bunny pres busy sev year gre recess chicago suburb may nev recov chicago apo hom pric driv buy suburb colleg sport illino stat stil struggles last april apo tragedy new tiny hebron rock drug weapon charg vil presid break new chicago teach un walkout leav memb weigh opt nat world nam story brussel attack victim emerg nat world battl palmyr rev much dam islam stat priceless rel break new nat world break new break new break new busy nat world dream hom brick hom wilmet travel top world destin food din read apo cho din award chicago apo best breakfast burg thing thing chicago weekend food din hopc beer bar com chicago apo serv goos island find town post tribun new bakery wag leg battl apo squ donut apo post tribun new chicago rap twist arrest drug charg travel show northwest indian elgin new dead ind limo crash tollway near elgin napervil crim southtown new break new napervil sun new oak park new heid stev lak county new napervil sun new post photo evanston review hist evanston suburb suburb chicago arrest photo dream hom new construct hom arlington height dream hom fiv bedroom hom glenco 06m sport column cub glad giv longtim rivalry cardin much nee fac lift edit help monarch butterf rul break new kurd immigr michig caf own fight deport get year repriev er zorn would ran courth zoo heal meningit surv shar pain story urg oth get vaccin mary schmich colleg reject dist fear lif apo lesson tak hold john kass east peep nat world ted cruz accus donald trump spreading fals rum extramarit affair weath weath photo hom photo backyard wildl new apo thou shalt murd apo coalit cal new video depict chao confus insid belg airport chicago cub cub apo jason heyward deny sign ste alleg new may lash resid photograph video leav chicago californ art entertain cat attack mail video prosecut mov fre convict murd chicago cub giant apo madison bumgarn cub apo alleg pitch nat world raw teach knock dis stud ground pet anim wild badg get track dev czs new break new simpson footbal card bil among item stat auct clout street kirk meet suprem court nomin new far southwest sid clergy want east without murd break new midwest thing break new search dat keyword may merrick garland apo pot fut accompl apo walt jacobson stil tak bow homeless act year arrest photo young act berny sand emerg tribun arch opin edit apo fear glob trad mat scar mong lik trump sand say edit childr fukushim med test mislead com americ apo perc saf ter apo good thing chicago din new din rick bayless apo apo mexico on plat tim apo nomin emmy drink spicy cocktail lov berny apo lunch sup cochon555 return celebr pork chicago chef lineup annount busy busy chicago apart build park glut study show busy cna sel loop headquart mil busy column would giv rais keep heal cov busy 2nd chicago tow firm could los licens stat warn the loop the loop apo chicago apo apo kil worldwid apo real carry coon apo brav apo new play husband sort hollywood lif hous the apo apo unit flight apo off cruc lif lesson apo har bound plan apo wreck sport chicago bear bear nee spee edg chicago bul jimmy butl evid ad soul search mix struggles colleg sport not dam ral vict elimin wisconsin sweet photo gallery rol ston cub penth overlook chicago landmark 25m way cross process pils downtown mug new new movy review new attract worldwid prom del big tamp bay ray cub havan chicago apo best mac chees not death batm year hid wrigley field best city singl mom thing kid spring c2e2 hit chicago chicago photo new entertain art entertain road trip rout stil hold hist poet pow televid next apo walk dead apo mayb apo the review matild superhero onst knowledg pow chicagonow expect fly kid metromix chicago break guid redey shot dark march metromix thing chicago weekend mash everyth learn apo bachel apo chicagonow neighb mosqu redey play twist mand chicagonow bad tim exerc chicagonow gre book spring break lif styl lif styl right tim start famy heal group walk boon body mind book august burrough apo memoir apo lust wond apo look lov sobry travel backroad door county lead surpr solitud subscrib download mobl ap read today apo digit edit fre newslet email alert sport break trend opin busy suburb entertain advert chicago tribun sourc chicago break new sport busy entertain weath traff chicago tribun chicago break new sport busy entertain weath traff chicago tribun chicago tribun top new illino stat stil struggles last april apo tragedy belg pol issu arrest war ter attack suspect med pric hom suburb across chicago reg continu infl adjust pric command gre recess quest many town long recov ev
p234
S'News_and_Media'
p235
tp236
a(Vhom train quiz tip tut funct cert interview job testimon advert contact abap test cockpit sap abap pragma understand se32 abap text el maint cre idoc fil sap apply serv understand adv dialog opt sap workflow sap workflow scenario maint not approv download abap cod pdf fil enh standard class work flo field adob form insert dat intern tabl step send mail display account long text us enh framework diff polymorph jav abap pass multilin paramet abap class ev workflow contain conceiv evalu ag act work item sap workflow dynam cre compon us abap webdynpro click detail simpl exampl us atc atc check multipl program tim abap test cockpit atc admin set abap test cockpit restrict transport atc er atc request exempt mess detail detail detail detail detail detail detail detail detail detail detail detail detail detail detail contribut saptechn sapfunct contribut saptechn contribut sapfunct saptechn saptechn saptechn hom contribut priv term us disclaim saf company advert saptechn post job contact round bend wizard saptechn let shar knowledg saptechn let shar knowledg sap train virt onsit sap virt onsit train abap test cockpit
p237
S'Computer_and_Electronics'
p238
tp239
a(Vscrabble che scrabble help word find crossword solv dict word find sign crossword solv scrabble che scrabble help word find crossword solv word find boggl text twist sudoku anagram solv word gam help word friend che word word word jumbl word search ful board che cryptogram crossword solv word friend che scrabble che lex che wordfeud che word find play scrabble word friend word find 4x4 boggl 5x5 boggl wild card boggl quick boggl text twist word jumbl solv crossword answ word search puzzl dict beat che play scrabble crossword gam word friend word find word word gam word sudoku word search mak fre print word gam anagram solv anagram 5x5 boggl crossword puzzl clu get help play scrabble crossword gam unscrambl word word word word word unscrambl word anagram dai cryptogram word morph gam anagram anagram solv scramble word find boggl solv boggl solv scramble friend word find word start word contain word end word friend help crossword challeng cryptogram solv quick boggl word end word morph find dai jumbl solv crossword help crossword solv pig latin polygon word gam wordplay dict wild card boggl word contain word list play scrabble crossword gam off word list word friend mobl word find morph word text twist solv crossword solv fre crossword puzzl solv crossword solv onlin crossword solv crossword puzzl solv boggl help boggl onlin worduku 5x5 boggl polygon puzzl clu crossword clu crossword answ clu crossword clu answ find crossword clu crossword clu crossword solv onlin crossword solv print crossword puzzl crossword help crossword help faq term us advert help ver email ad sit map wordplay priv beat word friend che get scrabble help solv crossword puzzl play boggl sudoku mak word search puzzl solv dai word jumbl diff langu try ful board scrabble che cre solv cryptogram transl pig latin us anagram mak phrases word much crossword solv word friend che scrabble word find boggl anagram solv scrabble help sudoku wordplay crossword solv scrabble word find scrabble help boggl anagram
p240
S'Arts_and_Entertainment'
p241
tp242
a(Vavvenir hom pag pagin accesso comment let diret chies vit famigl rubrich dossy mondo popot chi siamo abbonament contatt cronac politic cultur econom spettacol sport scienz tecnolog video foto bologn milano rom vegl pasqu battesimo per adult terr dei fuoch record tumor infantil iraq kamikaz allo stadio strage ragazz bruxel terzo uomo giornalist terr sant sar restaurat sir palmir vist dal alto video ministro cost piano post riv per mil al mosch alfano pap francesco telefon seminarist malato rom manovr marchin m5s risch mort patric italian dispers bruxel patric gli altr story chi non trov addio paolo pol gig del palcoscenico omicidio regen tutt dubb del ital egitto annunc uccid dei presunt assassin del ricerc us indian viet aborto per disabilit fet francesco profugh salutat uno uno giappon esecuzion venerd santo sabato santo giorno del attes via cruc immagin dal mondo tra grattaciel via cruc contro indifferenz drammatico dialogo tra giud mar convivenz scuol dov sfid decid fratellanz contagio che salv torn or leg ecco perch nat regen uccis sequestrator giallo addio seren elis am lenisc dol enzo bianch sabato santo giorno lungo pietrosant ferrett dialogo art sul annunciaz ustic film cerc verit due ruot arriv parabrezz ant distraz banch nuov cas del bcc sciopero poligrafic neanch avvenir edicol adoz incrociat copp omossess non tutt gli orfan interessano med politic coraggio umilt per contagi misericord diritt uman sono fin usano com mezz omaggio educ dov italianit boscovich verit cur ferit bruxel arrest ferito sospetto belgio nel mosch preg contro ter bruxel arrest cacc uomo bcc senso un riform diff contro utero affitto ital prim line alfano pronto piano contro radicalizzaz titano trovat sua montagn alt min dna sintetico passo per vit art morto ray tomlinson inv dell post elettronic healey parabol uman artistic grand heal soul cur del anim music dell pass inserto csi milano del marzo cte mal oscuro del footbal moro lass qualcuno am diret chi siamo contatt credit priv per pubblicit vetrin avvenir notizy principal gli approfondiment nost inchiest multimed avvenir vegl pasqu battesimo per adult
p243
S'News_and_Media'
p244
tp245
a(Vcia roteiro del rio sexo modelo video foto minh assinatur contato anunt assin entr rea vip outra cia acab estrear primeir part noss primeir rie ter mundoma ten suspens claro muito sexo gig futebol ingl cri torcid organizad gay ant preconceito venh espi gay fazendo sexo vivo cam deo foto cont adulto garoto mai deleit cin sex ultimo lan amento mundoma twit facebook youtub instagram cia espec lifestyl turismo roteiro cult del rio garoto mai deleit cinesex netvideo videolog conto galer foto ensaio hot fal conosco sej assin cent assin parceiro anunt aqu cia foto video hot boy roteiro mundo gay best hotboy ensaio fotogr fico video hot boy brasileiro brazil hotboy editoria
p246
S'Adult'
p247
tp248
a(S'frontp login protect link edit link reg ap shar onlin biz faq new host contact 1click host loung bulletin board contact earn money faq ap stor sav typ hyperlink many diff way shar everybody want shar link biz effect hyperlink protect new link stat wed'
p249
S'Internet_and_Telecom'
p250
tp251
a(Vrecuper password chi siamo are ricevitor classico onlin gioco risultat risultat liv statistich informazion quot totocalcio totogol big match big rac ippic pok casino bingo skil gam gioco risultat risultat liv statistich informazion quot totocalcio totogol big match big rac ippic lotter ital lotter brail superenalotto winforl videolottery new slot hom novit lis caric lis pag lis card pok lottomatic bon benvenuto scaric grat bon benvenuto priv disclaim not legal gioco respons lottomatic inform
p252
S'Gambling'
p253
tp254
a(g10
S'Adult'
p255
tp256
a(Vhom steam gam tf2 item dot steam sal steam calc faq contact forgot password pow steam hom faq saf priv term act adv strategy rpg indy cas sim rac sport fre steam gam csgo skin steam wallet cod steampow fre steam gam follow easy step us steampow
p257
S'Games'
p258
tp259
a(S'shar capitulo naruto capitulo naruto shippud naruto shippud esp esp naruto mang onlin naruto pel ova abrir chat ventan nuev mir capitulo naruto mir todo los capitulo naruto shippud capitulo naruto latino descarg capitulo naruto naruto shippud episodio grat capitulo naruto completo onlin naruto shippud'
p260
S'Arts_and_Entertainment'
p261
tp262
a(Vstreamate liv cam fre sex cam sex forgot password choos langu deutsch esp fran ai italiano nederland portugu svensk hom search new model support memb login show calend submissivel party chat sallydangelox party chat kaitlyn gold show janessabrazil gold show ravensund party chat barbiefoxxx liv annabelle_sexy liv prettymilfy party chat aileenvip party chat cammi_cams gold show teas liv dollyyy18 party chat mastersgirl liv agnesss party chat cameron_ni party chat magicmadl gold show evemil liv nathalyqueenx liv midwestmilf party chat sexymartin liv manikaros liv juicyang liv twiddl party chat xsexykiraxx party chat laceyalanaxxx party chat beshin party chat almaevin party chat livingdol liv lovelysexxxy liv joannah party chat holykim party chat alwayswow liv ivyvanhorny liv lucyy gold show naughty_blo party chat xxmashaxx party chat webactress party chat ladylust69 liv fridenhal party chat francisc liv sexyany party chat senadd party chat fetishnetwork gold show kisss_my_lip party chat missnicol liv realcouple4uuu gold show sabrin party chat anngelic party chat anielaxxx liv very_bad party chat fellicity_ party chat xmichellcoll liv ahleah liv kaylee_starr party chat mmmpinupgirl gold show jackiesyn liv mallenn party chat monica_divine party chat roxilac party chat mrsluvxx liv lady_amberi liv nicol_squi liv kateashton liv fragol liv audrey_lane party chat _wet_kitty_ party chat britin party chat pervertev party chat melissa_cute party chat alisam gold show lovelykhalees gold show chrispmishelw party chat jenniferamess liv cuteden party chat _biancabaker_ liv jen liv natalliarock party chat bornforlov gold show beachgirl19 liv rosared liv liv cam an sex as bab bbw big tit blond bond brunet ed coupl curvy ebony feet fet granny group sex hairy pussy housew hug tit latin lesb mat med tit musc non nud petit body pornst pregn redhead shav pussy smal tit smok teen toy transgend transsex whit girl guy cam altern an sex as athlet bdsm bear big cock bisex black coupl daddy frat boy gay guy next door latino mat musc non nud straight uncut top deutsch esp fran ai italiano nederland portugu svensk homep adv search new model memb login click https cambuild custom serv frequ ask quest 2257a record keep requir comply stat dmca not copyright infr term condit priv policy streamate origin liv sex video cam girl sexy girl hom studio liv xxx sex cam liv girl streamate liv sex web cam video chat fre memb xxx liv sex girl streamate liv cam fre sex cam sex submissivel navig join fre
p263
S'Adult'
p264
tp265
a(g10
S'Business_and_Industry'
p266
tp267
a(Vfind cooky jump cont accesskey jump sit navig accesskey jump sit tool accesskey jump search accesskey contact accesskey access stat accesskey hom bank account isa sav credit card loan car fin mortg ins shar deal invest travel onlin serv money explain find contact bank account isa sav credit card loan car fin mortg ins shar deal invest travel onlin serv money explain produc bank account isa sav credit card loan car fin mortg ins shar deal invest travel onlin serv money explain protect protect common threats stay saf onlin condit apply get quot sign onlin bank find sign onlin bank onlin serv mortg calc sec priv branch find download ap person sav allow intend shar off treasury invest protect custom learn fscs find get branch detail op hour find nearest cash machin branch find cal halifax peopl giv extr apply today bank account sav account isa loan mortg credit card halifax bank account sav loan mortg stay saf onlin produc serv onlin bank halifax us cooky improv onlin expery find cooky
p268
S'Finance'
p269
tp270
a(V24x7 custom car sign signup log pay sav card ship cancel return faq report infr contact car flipkart story press slash onlin shop affy program gift card flipkart first subscrib term us sec priv infr brand direct stor direct onlin shop ind mobl camera lifestyl onlin flipkart onlin shop ind pay method not tim alert includ upd ord stat pric drop produc interest sign start receiv not
p271
S'Shopping'
p272
tp273
a(g10
S'Career_and_Education'
p274
tp275
a(S'nat geograph engl engl esp portugu tin deutsch engl esp fran ai polsk world war wargam world war wargam mmo'
p276
S'Games'
p277
tp278
a(Vchoa_ lee cha rin 2ne1 superdop lift taecyeon 2pm song yoon park joo hyung kim jong moon going touch jyp pict cont pool mae cruz alvi cathy garc molin richard arellano ab cbn dilemm island hong chang pyo kah school tablo tukutz epik high yoo hee yeol sketchbook lee wong yiu art lov as nav cast cardin black ros stepon son jung hyun sbs shadow exo planet exo lux lay lee soo man entertain fiest mir btob rememb soundtrack radikun qin lan modern lady may new photo magazin movy dram mus ful dram movy show movy new movy chin new dram dram kor act campaign photo ost savakod rinrin savakod valer _jibooteh christmas day https youtub watch tgbi2nkpzss silverc cherry_ acac calvin klein jean brooklyn boy goong wind blow wint protect boss yamato nadeshiko shichiheng tim slip jin mar lie danut09 hittom dominic mamuts8791 ackermann misis_viktori liv lian alev tin saranzay sayank leemar ddz maret komt princess1221 olga69 leesooh dzeshiko cherry_ secret grand hirosh ell melany lim prozerpin kat_rina allenspad maisong zhizn prekrasn arshedj dexrash eva svet77 milady_online valer zairk bon ev sapfirk quint shik taa julk chi el22 nmt2807 scintill ira_oli amilan25 fene azazel4473 masha24 _jibooteh inn natalyona22 petra606 aya789 falls29 irakr svkom sugoku hosh say katan alex sesh212 enny katuwa_46 rinrin ul al elli03 lee aej mika_d fill989 niilit torb zuz clar yna_scorpio jennyan dian jan young salim denoir enjishid alakyl elenk lavish merek octop zin nta elkinush tosha_ terr black cat park chanyeol foll svoch alovesouthkore saltik kim iy kim brunetkann annabel jasmin kkristi nunyah chezar malwinkagalink an pel logair lin kozirev zoi phantomk olchik_k hilleo crazyidiot schisandra abazk nin lilu slivochnaj hiko15 llenanun kil cel lunatopik belle_mort amik saxar2014 cat j_rock_star mimink artemida2720 akahiko akiro gabriella1 selti_noir amaterasu2828 kookych respiro natylk bzs wad nic person katyablekss syg mariamjisung1 asselek viktor marianna333 nika_jazzz sadeko evgeniy13 not travel angeldamon raccoon ell_asatori elo27 zar hait meer pancak elmik rayk fruit bert mir auror kate_aka_uta lastochk iv kalidus911 vyoletyk crumb jojo aleka_90 norung shogun black shadow vir ksu_81 tany qaterin reelk nacteno4ka pofig pacificac katrinfirsl rin080895 sabio fionrel valin masyanin lanochk anxel ayauk littl lif barashik_01 jadiko an ais i3erry dariadey kuch raikir zhasmin rja rezid chuchundrell cvetlan paranoy kosh kerf nicolin emcaco joy mariya82 mine21 drak nata_liy anastasia_neko gul emma351977 mereylim mall lolakitty kristyh lanascorp galq kre zhann lislin gdragonn pecir ale4ka_999 dono127 deniz taikarin belladonn korotishka87 kondrat_t qagehaq iaxsar sanvo lonely_rain zlooo gokuvok evil141 selena128 tat shi 2love4gd dr_o_bina zveratigr ehnk vika marya74 dianinz ghost_wolf umar auksin hollayollany dodoshk lik mind kora_ aa nikandraa likal daisy mal mal supernatural270390 miss madinachk len pool tin wil galla_2 sabl vint meal jarook prohodim niki27 love_in_idlenes bondik mimik demi01 valter park_sang kasiopey kozim ducksdotcom alladi65 kaar gayag c9l safar katerina lov b2st pop angelina3208 aleksa6235 rk214 lana18 zika lilian sakasay lynatik kur markizozk shh didi68 b2utyfulelf rinagru voic deardarcy pancho_97 he3hakomka odr aisooshk albin ad denta11 sha nigo frozen_queen shast sha spels nian niniko_net stasim squirrel nola5 mary_m kuzin katazzin jake78 krist muren allen_lu ni_barash adult__child irinaty jukar lexy ref tatsuk sor umk junghyunrim emv lil manzanill j28lia meraliss aliensam siml ginny782 aranid rin_d kiyom elena1510 lostr lut bobby kisy insomn sol kang soo hwa rosibis kadyroov tom chir nasti yf4 iinush djek miyako chan olga06 nin tel drozofill kukharenok ssanta natalj nightflow lee20 lopyx ayakim jun zet bepo_huka sin cvetan varvar o1717 saya_trance katsel houm mariya88888 nasredin mamaska0013 destiny2304 dindin123456789 bibliot tashik frany vlada_s abramov iuli _yasmin_ enm baudalino meil lalk jondok yag nat ailuh mkamenskay jd117 honey lukas_greenland mariy miy kotenokmerry azs25062004 kassandr ellytru doll zcbm333 volod darlrne_divin host evit_ katemochalova1997 kaijou sayashk leah solnyshko alisiy sofian ofilya79 tichonn80 elizabe neit zeddy kimsash soul young rom ein a1zlast serafim allesunny mizmo spayk melliot nearbird van helga_1985 tashka23 wow fann moon minsoo janu kkriss merimor alina6 vedan dreamerk kot_leta nikk johnnikson zhuk kitokat vera shyray poo olga_2681 dizavrik met lok kjkiki inn liud zzz benk bang pupsikcat_doll nafany iluz eliza_cl tinka_2008 choken_chok yuliya_m82 yulkina777 sr_timoxa gulya78 kidney slimp gulkaav wond girl amy slavrin kexibt savakod sunny_girl garden assj leo3854 nata yuong min katrinwnchst lyd kimint track27 corn flow suluim fop_2000 bjorkn nag malen confett babavania49 sashenk kuba_krist hinataop elenas taraxic ne_ia seir tais mavblsh diana1216 ir debora10 elena_yp prutik eleph onostos ainyush arik juldys lsnuna salta_bst linux olgaosh zvetok_le_hime rum siranush urvancevas xammond kal louisach yuuk albina05 sofij bloof rojo nyuk xorst besenok halfzero xo4595 savako alice16 ayselad krez maniloy lan nle uli4ka wand alterr camomile92 basil mercy doramakun
p279
S'Arts_and_Entertainment'
p280
tp281
a(S'trang minh huy tho fif onlin chi huy tho read read less priv term priv policy minh huy tho fif onlin chi huy tho trang vietnam esport trang vietnam esport chi theo'
p282
S'Arts_and_Entertainment'
p283
tp284
a(S'an rio par ano an rio par afilhad an rio par afilhado an rio par amig an rio par amigo an rio atrasado an rio par an rio par an rio casamento an rio par colega trabalho an rio par comadr an rio par compadr an rio par cunhad an rio par cunhado an rio par espos an rio par esposo an rio par filh an rio par filho an rio par genro an rio par irm an rio par irm an rio par madrinh an rio par an rio par marido an rio par namorad an rio par namorado an rio par net an rio par neto an rio par nor an rio par padrinho an rio par pai an rio par prim an rio par primo an rio par sobrinh an rio par sobrinho an rio par sogr an rio par sogro an rio sortido an rio par tia an rio par tio toda categoria mai ano sem voc amad saudad que foi falt que voc faz voc troux belez alegr par minh vid ped deu dia iluminado par voc mam minh minh hero mens rec parab por hoj felicidad par sempr nest dia espec parab todo carinho meu voto felicidad senh parab um pesso muito espec fel an rio fel an rio minh filh sempr minh mem ria hoj seu dia cunhad xim 7graus contato pol tic privacidad termo uso mens an rio melh mens fel an rio par envi par quem voc gost encont mensagem an rio mens an rio mens an rio parab minh amig que seu dia sej lindo quanto seu sorriso lhe of tant felicidad quanto sua amizad env par minh vid que est nov etap chegu rechead muit nova oportunidad par concretiz seu sonho mai desejado que alegr acompanh voc por todo momento que deu continu guiando todo seu passo iluminando cad vez mai seu pensamento que sua simpat poss contagi aind mai pessoa voc um pesso muito brilho humanidad merec que sua luz sej compartilhad nunc esqu quanto espec par minh vid tanta outra pessoa voc nic jama est sozinh nest jornad minh amig que seu dia sirv par confirm quanto voc amad como felicidad permanec eterna sua cas fel an rio'
p285
S'Adult'
p286
tp287
a.