(lp0
(S'cre fre account expos webcam blog liv fre fun livefreefun review fre cam girl tub freecamsexpos easydatingexpos freeappsexpos lowtexpos engl fran ai esp portugu deutsch italiano coi shar tumblr tweet model feat herein least year ag tim photograph webmast promot pag crakrevenu ant spam gon day pay upfront webcam show guid show enjoy fre liv sex without spend dim expos webcam fre liv fun enjoy liv sex show fre expos webcam secret guid fre liv sex secret expos derek cre fre account'
p1
S'Adult'
p2
tp3
a(S'spin tir spin tir spin tir spintir clear cach spin tir spintir spin tir beamng driv beamng driv beamng driv beamng driv beamng driv beamng driv beamng driv beamng driv beamng driv minecraft minecraft minecraft minecraft minecraft minecraft bukkit fallout fallout fallout faq fallout fallout fallout fallout euro truck sim euro truck sim et et euro truck sim euro truck sim at at at am truck sim at am truck sim fallout am truck sim spintir fallout automatron lion daf euro truck sim slavask edek euro truck sim slavask fendt euro truck sim slavask syncron log intern euro truck sim slavask volvo euro truck sim slavask pontiac tempest lem gto beamng driv slavask road strihn boom plu strihn ston brick strihn ratchet clank strihn exchang orb strihn bet sug can strihn toyot land cru strihn slavask engl fran ai deutsch esp portugu spin tir eld scrolls skyrim minecraft world tank worldofmod world mod lion daf fallout'
p4
S'Games'
p5
tp6
a(Vbild list denktest emotionstest fahrerlaubn fan fikt fantest frauentest funtest gesundheitstest test job gehaltstest kinofilm liebestest lit cher nnertest musik per nlichkeitstest rpg rollenspiel schauspieler spiel sport sprachentests star prom test kind top list trickfilm mang und sery unschuldtest unternehmenstest wissenstest youtub al test neu test wie gut kennst feuerstern fantest cher quizz warry cat wie gut kennst july fantest youtub july bam wie gut kennst shirin david fantest youtub shirin david h2o welch charakt passt dir per nlichkeitstest star fig h2o tzlich meerjungfrau wie gut kennst das fort fun abenteuerland wissenstest freizeitpark quizz and freizeitpark al neu test bin ich gut betz bin ich saxy bleach sev minut heav dummheitstest faramir test grischistudio kartenspiel mein wiklich reif mein angst nico robin pass und taddl zusam pok mon welch rang hab ich der klas welch bell sar pferd passt mir die quizerstellung hier geht zur interakt quizerstellung wol sie sich selbst bew wie gut sie sind der test start sie hier dies einmalig test die quizpyramid start sie hier die quizpyramid die todesuhr begin den gnadenlos countdown top test top kateg nur das best zufal quizz bin ich gut bet bist bsch welch bunt haarfarb passt dir welch disney prinzessin bist das luc quiz welch youtub bist wie reif bist wirklich dchen welch eo lip balm passt dir welch youtuberin bist hnlichsten wie solltest eigentlich hei bin ich sch jung wer ist dein youtub boyfriend bib beauty palac sagt dein handschrift ber dich au ein haarfarb passt dir ein dchen bist tun geg langeweil youtuberqu welch nicknam sind wie dich gemacht find hera bib wahr falsch test bin ich dick wie bist bet nur dchen bin ich bsch nur dchen welch anim passt dir passt ein hund mir liebt dich wirklich bin ich sexy dchen bin ich beliebt od nicht kan man geg langeweil tun liebt mich od mag mich nur gay ich bin verwirrt welch parte sol ich hlen genauigkeit welch hau der hogwart schule hexere und zaubere geh rst bin ich verliebt deutschland bundesl nder hauptst dte quiz harry pot usertest find hera welch hau passt potterm sprechender hut select welch dchen bist welch spitznam passt best dir liebt mich welch anim passt mir welch thunderm ist dir hnlichsten welch lebensmotto passt dir welch hunderass passt mir steht auf mich welch haarfarb passt mir top test top kateg nur das best zufal quizz harry pot bin ich ihn verliebt welch nam passt mir buffy liebt mich bin ich gut bet naruto welch youtub passt mir bin ich bereit ein beziehung bin ich sexy lieb ich ihn sextest bin ich verliebt drak josh freundschaftstest der sleepov club her der ring welch hobby passt mir schwul bibisbeautypalac bibin wie wirk ich auf and vict navy cis gle hab ich ein chant bei ihm langeweil pass wir zusam das erst mal freundschaft od mehr lesbisch on piec harry pot welch farb passt mir liebt sie mich bin ich sie verliebt lebensmotto kom wir zusam welch ber hmtheit ist dein lov krieg mpfer waff dant academy harry pot bin ich bsch test vampir diary kuss typ welch trickfilm mang od animefig ist dein lov liebestest teeny wie alt bin ich harry pot voic germany top test top kateg nur das best zufal quizz bist bereit den som fnaf quiz germ aveng lovest teil mag mich wie viel lauch steckt dir bist ein echt rugby prof wie gut kennst gar nichz lea aveng lovest twilight lov dein geschicht mit einem werwolf elfenzeit die anderswelt wahrst sin des wort warry cat dein gef hrte violett ein weit dea not partnertest bin ich verliebt ihn wer ist dein lov fnaf vamir diary schwer welch von shield wwe passt dir krassest test ev welch let play passt dir dein leb und lieb der welt von attack tit welch hauptcharakt von fluch der karibik bist mag mein schwarm mich auch od usch ich mich dein lovest bist der rettend krieg welch bmw passt mir end day creepypast lov test feel blood want dark sid diabolik lov duwirstverarscht quiz pumuckl das expert quiz dein leb und lieb der welt von dea not hast das zeug zum star jackicrafter_900 bloodstain lov blutbefleckt lieb diabolik lov teil welch minecraft youtub passt mir islam und islamism bloodstain lov blutbefleckt lieb diabolik lov bin ich ein busch baum od blum funtest star war dein lichtschwert das simspon quiz ken kannst die zeich der del deut welch japanisch nam passt mir dchen jung warriorc welch ausgedacht katz bist die fortsetzung warriorc welch ausgedacht katz bist wie ver ckt bist lin lariss strahl welch nnliche animecharakt rde mit dir ein zieh jad bojs fanqu wie gut kennst mattyb maz run dein geschicht nur dchen sturmwaffel quiz dein kopfgeld on piec top test top kateg nur das best zufal quizz wie wichtig bist ihm welch anim ist xand quiz warry cat quiz ein fabelhaft wes bist nur dchen welch posit rdest beim quidditch spiel germany next topmodel chroniken der unterwelt bist warry cat wer bist harry pot und der stein der weis test test her der ring doof wie sehr hnelst laf kennst monros wirklich warriorc welch anf hrer ist dir hnlich welch on piec boy ist dein traumman ein harry pot quiz pubert allgemein naruto ein urlaubsflirt typ bist twilight ultim blink quiz bist ein vorbildlich sch ler pokemon angel beat wei dar ber rock strongos dethklok metalocalyps quiz tre william wissenschaft doct bist ein wahr fan merlin die sery wer dein geliebt her der ring das quiz wie gut kennst dich winx club au staffel quiz echt autoken hotel zack und cody test engl knowledg wie viel hung hast wirklich naruto nam ultim spongebob quiz test dein leb auf dem oz ein onepiec lovest twilight bis zum morgengrau wie gut kennst spongebob und awz das quiz fan das gro sarah con quiz rechn welch gesch steckt dir desp housew das quiz ich sag dir dein typ rechtschreibung gzsz achtest auf dein er wie gut kennst spongebob mein quizz mein profil quizerstellung fanfikt schreiben kateg bersicht quiz vorschl top neu test nur das best impress seit empfehl newsfee werbung link testedich der test quizpyramid das for test kateg die quiz und test seit ber test und quizz wart auf sie test sie ihr wiss und ihr per nlichkeit und werd sie der neu pilaw testedich die quiz und test seit test sie ihr wiss und ihr per nlichkeit die quiz und testseit ein spannend reis in ich die neust test wie gut kennst feuerstern test quizz ist soweit test bis der arzt kommt wol sie herausfind welch wissenspot ihn schlummert dan mach sie doch ein intelligenztest od sie vielleicht dass ihr arbeitskolleg mehr verdy al sie dan mach sie ein gehaltstest sind sie sich den richtig liebhab hab od test sie doch zwischendurch mal wie gut sie ein fremdsprach beherrsch od mach einfach ein spass test hier lohnt sich auf jed fal auch ein etwa nger besuch
p7
S'Games'
p8
tp9
a(S''
p10
S'Business_and_Industry'
p11
tp12
a(Vbest video new video tag hot mat wom fuck stud nak mom tub nak mom tub xxx milf sex clip nud mat pussy movy best mat video
p13
S'Adult'
p14
tp15
a(g10
S'Arts_and_Entertainment'
p16
tp17
a(Vskip cont hom car invest rat comply iblog interest want prem bank account deposit loan ins card sup sav pack invest forex produc start us 24x7 serv mak pay mak request know off know credit card stat ind exclud ind select individ sav account def sal account corp sal account fix deposit sweep deposit regul recur deposit seny cit scheme young sav deposit deposit plu loan property hom loan vehic msme loan person loan gold loan loan shar loan credit card ind kis heal ins gen ins lif ins card protect plan credit card debit card forex card commerc card ind heal ass ind hom sec ind littl invest ind securit ind elev ind easy plu dem account asb mut fund suvarn mudr goi sav bond structured produc priv equ sovereign gold bond foreign cur bank not foreign cur demand draft travel chequ onlin bank mobl bank quickpay video branch onthego facebook onthego twit serv bil pay immedy pay serv swiftpay induscub sms alert stat off redempt shop atm pos reward netbank reg off netbank pay off soc bank off quick pay off indulg credit card indulg credit card nri interest want prem bank account deposit invest ins transf fund remit money start us 24x7 serv mak request chat onlin ind exclud ind select nre regul sav account nro regul sav account rfc account nre fix deposit nro fix deposit fcnr deposit rfc deposit rup multiply equ trad nri portfolio invest scheme mut fund gen ins lif ins telegraph wir transf ind spee remit ind fast remit remit cash remit correspond bank onlin bank serv video branch sms alert stat corp bank interest want corp bank cli commerc bank cli busy own tasc cli transact bank glob market invest bank real est bul correspond bank capit commod market includ bank agr wareh fin supply chain fin corp bank institut bank cli commerc bank cli trad foreign exchang account busy solv cur account ind tasc ind prim ind fcra transact bank glob market invest bank real est bul correspond bank capit commod market includ bank agr wareh fin supply chain fin busy cur account cash man serv busy loan trad foreign exchang account ind edg ind grain ind textil ind infotech cash man serv busy loan govern fin institut interest want fin institut group publ sect unit transact bank glob market invest bank real est bul correspond bank capit commod market includ bank agr wareh fin supply chain fin fin institut group publ sect unit transact bank glob market invest bank real est bul correspond bank capit commod market includ bank agr wareh fin supply chain fin login reg demo quickpay account stat request bal enquiry get min stat swiftpay neft rtgs imp vis money transf oth swiftpay account individ sav account def sal account corp sal account deposit fix deposit sweep deposit regul recur deposit seny cit scheme young sav deposit deposit plu loan loan property hom loan vehic msme loan person loan gold loan loan shar loan credit card ind kis ins heal ins gen ins lif ins card protect plan card credit card debit card forex card commerc card sup sav pack ind heal ass ind hom sec ind littl invest ind securit ind elev ind easy plu invest dem account asb mut fund suvarn mudr goi sav bond structured produc priv equ sovereign gold bond forex produc foreign cur bank not foreign cur demand draft travel chequ start us 24x7 serv onlin bank mobl bank quickpay video branch onthego facebook onthego twit serv mak pay bil pay immedy pay serv swiftpay induscub mak request sms alert stat know off off redempt shop atm pos reward netbank reg off netbank pay off soc bank off quick pay off know credit card stat indulg credit card indulg credit card ind exclud ind select respond innov reach indusind cod commit schedule charg collect ag cal reg griev redress kyc bank custom rbi not us inform chequ trunt system custom facilit cent neft rtgs detail unclaim deposit auct not reg disclos sect post ballot famili program independ direct aadha see stat fatc crs don prim min nat reliev fund interest rat term condit priv policy sitemap import mess soc sec ins schemes pmjdy faq claim proc ind money program chang thoma cook holiday sav account branch work hour sec bank chang bas rat bplr effect 19th oct rec view innov form cent account op deposit loan bil form forex account op credit card invest serv form loc reg off corp off csr custom car contact faq feedback form phon bank video branch serv calc invest plan hom loan calc person loan calc tax assist calc apply person bank nri bank person bank indusind bank off wid rang person bank serv includ deposit loan card ins etc meet person nee person bank nri bank person loan hom loan indusind bank person interest transf rat new person hom pag
p18
S'Finance'
p19
tp20
a(S'borratin mono bingo telekino megabol maradon pocead loto quin brinco prod loto plu quiniela notitimb punto quiniel vivo plu pocead borratin megabol mendoz sant santiago rdob montevideo'
p21
S'Gambling'
p22
tp23
a(Vagreg list falabell cmr vias falabell seguro falabell sodimac falabell export logo falabell busc producto vent corporativ tienda servicio cli busc list conoc nuestro beneficio ver ver ver ver ver ver ver ver additemtocarter bankpromotionwarningtrig givenchy dahl divin edp agreg bols agreg list robert al juego vajill jos agreg bols agreg list ros div cam ergo agreg bols agreg list calvin klein rev wom edp agreg bols agreg list ros div cam ergo agreg bols agreg list samsung lavarropa wf1702 agreg bols agreg list mic taz con asa porc agreg bols agreg list philip afeitador at898 agreg bols agreg list nespresso quin caf in agreg bols agreg list nespresso quin caf pix producto agotado agreg list kitchenaid batidor ksm15er agreg bols agreg list lavarropa f1400td agreg bols agreg list rmino cond reg strate actualiz dato cambi clav recuper clav estado compra factur elect nic seguimiento rden lista regalo beneficio falabell todo costo env pol tic devoluc cambio rmino cond privacidad seguridad map del sitio cmr vias falabell seguro falabell falabell export sodimac nuestr empres vent corporativ inversionista trabaj falabell vend virt cuidado con email fraudulento cuidado con email fraudulento responsabilidad soc responsabilidad soc compr segur compr segur dat fisc dat fisc contacteno falabell falabell argentin bienvenido nuestr tiend onlin electrodom stico producto destacado lista novio precio ref costo cobrado moned del
p24
S'Shopping'
p25
tp26
a(S'deo blog jogo entr ent ver mai ent ent sou princes sou real ver tudo ver tudo sit disney disney babbl parqu dio disney marvel film zootop bom dinossauro divertid ment tomorrowland lug ond nad imposs vel jogo jogo onlin aplicativo disney infin club penguin deo film rie sic toda col oportunidad trabalho publicidad pol tica privacidad termo cond uso sit of disney rie deo film jogo sic person muito mai disney brasil sit of disney see rev deo'
p27
S'Arts_and_Entertainment'
p28
tp29
a(Vlearn engl primero paso test nivel nivel sico nivel intermedio nivel avanzado curso completo ingl negocio vocabulario par viaj verbo regul verbo irregul phrasal verb video lecc ejercicio gram tic cant ingl juego vocabulario expres ingl refr ingl cita ingl traduc conjugad chuleta ingl extranjero noticia chat ingl acc registro olvidado contras tien cuent reg strate grat rmino cond pol tic privacidad tien cuent entr aqu reg strate sigu explorando test nivel intermedio avanzado sico negocio cant ejercicio deo expres chat cita vocabulario expres refr cita traduc conjugad chuleta chat acc registrarm grat bienvenido aprend practic recurso comunidad progreso quiero particip primero paso test nivel nivel sico nivel intermedio nivel avanzado curso completo verbo regul verbo irregul phrasal verb ejercicio gram tic video lecc cant ingl juego expres ingl refr ingl cita ingl traduc conjugad vocabulario chuleta noticia chat ingl desast nat vivir sin marca fals friend horario comerc palabra que caus confus ingl inicio ayud contact pol tic privacidad dato leg arrib aprend ingl grat con nuestro curso mas lecc con ejemplo audio distinta divertida forma estudi ingl cant ejercicio deo expres chat encontr adem herramienta que ayud estudi ingl conjugad verbo traduc buscad verbo phrasal verb etc pru bala curso ingl onlin sitio par aprend ingl grat sitio par aprend ingl grat confirm tus dato
p30
S'Career_and_Education'
p31
tp32
a(Vcontact rss fee advert luzon vismin metro manil pow ajaxy hom dailyfee politiko lok soc snitch politiko luzon politiko vismin politiko metro manil politiko partido politiko sci instagram twit video column grac pulido tan tel rcbc ev moron bongbong burn smart pldt glob slow internet tulfo bet binay skip last show dai fee bongbong burn smart pldt glob slow internet tulfo bet binay skip last lang binay dutert poe supet may ruin len cle im dutert americ lapdog may camp tag comelec urg explain prid deterg chiz op foreign invest lik rupert grac poe tel vot bew thiev senyoritong sig mar los cool binay on cebu pick dutert presid walang kaart art dutert pretenty moron weak mar suff verb beat puls as ab cbn survey bongbong fin overtak chiz cayetano tril left cold politiko vox cayetano uns marco onlin king command conqu dutert domin internet buzz politiko vox dutert untouch internet world binay shock poe attack bongbong cri foul med ant marco bia senyoritong sig mar los cool binay on cebu pick dutert presid walang kaart art dutert liv luxury hous pretenty moron weak mar suff verb beat puls as ab cbn survey bongbong fin overtak chiz guil much binay attempt block releas masahol kas pacquiao drop mag adaz ask binay buy show politiko lok grac pulido tan tel rcbc ev moron phon vict downplay poe archbishop tagl sad stat tommy osm hat marco binay grac pulido tan tel rcbc ev moron binay say fib heartbreak mar fault colmen cal bongbong liar glor marco accus buy barangay pnoy hon army gen blam saf binay on cebu break win pnoy congress pass pay hik ridon think deguito mad pnoy ord gov ag prep rudy juggernaut 14m way dutert im marco dar pnoy reject mult mil bon purisim got p1b cagay onlin sinung ombudsm say toby coa claim ces virat technocr marco tommy osm hat marco binay grac pulido tan tel rcbc ev moron kahit kulel karl estrad sabah kiram tel malays med tamang panahon recto hop pnoy show soc snitch politiko spent holy week break prid commerc alt promot presid check hil mem 2nd presid vip tre len robredo kid tak dutert poe outshin roxa deb mar roxa triumph cebu presid deb dutert poe find binay deb not com top reason enchong dee vot dutert cayetano look smal next spot presid aquino din fant steak help leil lim struggles internet keep spark al al wif robredo camp disgust marco escudero rud check hil mem 2nd presid vip tre len robredo kid tak favorit fut first son celebr pow vilm santo campaign len teddyboy locsin adv grac dutert poe outshin roxa deb look top campaign ess korin sanchez look len robredo meet past quiboloy kri aquino an binay best friend politiko polit hom contact feat instagram video politiko sci politiko lok twit advert politiko port luzon vismin metro manil politiko soc new blog sit politiko kin friend al cent univers writ word dee lik dislik dream fear entertain provok hop inform along way politiko polit lang binay dutert poe supet son claim prid deterg attack also whack roxa recommend metro manil headlin
p33
S'News_and_Media'
p34
tp35
a(Vver ap ver ap ayud chat mis pedido dafit femenino masculino infantil deport dafit mag zapato femenino mocasin alpargata creep suela ancha sneak lifestyl baleta sandalia tacon bota oxford playera deportivo peep toe zapato cas toda las categ masculino mocasin oxford lifestyl zapato form playera alpargata sandalia bota zapato cas toda las categ infantil unisex zapato zapato toda las categ vestuario femenino blusa plu siz leg media rop dormir rop intery tras vestido overol enterizo falda short pantalon jean chaqueta chaleco abr saco cardig buso camiseta camisa toda las categ masculino tras media rop intery bermuda pantaloneta pantalon jean chaqueta chaleco abr buso saco cardig camiseta camisa toda las categ infantil femenino masculino toda las categ accesorio masculino mor guant canguro gorra sombrero set caram ola estuch maleta bolso cinturon gafa billetera maletin relod bisuter toda las categ femenino mor maletin llavero canguro bisuter caram ola estuch monedero maleta gorro sombrero gafa cinturon billetera bolso bufanda relod toda las categ infantil toda las categ deport femenino vestuario equipamiento accesorio zapato toda las categ masculino vestuario equipamiento accesorio zapato toda las categ infantil masculino femenino toda las categ marca oferta femenino masculino deport ten tns adida nik bos brahm pink connect seventy degr pier nin kenne col armo lev muss oc pac new look fil mng gef pier nin everlast pum reebok stival tommy hilfig molec velez hot sal black friday cyb lun playera blusa vestido dia madr dia del padr baleta jean camiseta deportiva camisa relod deportivo ten nik ten fil facebook twit pinterest youtub instagram aviso cumplimiento pol tic privacidad plazo costo env rmino cond pol tic dato aviso privacidad sobr dafit registro compr uso cupon seguridad devoluc dafit sport dafit argentin dafit brasil dafit chil conoc nuestr pol tic privacidad pol tic dato info dafit mobl tablet compr ropa zapato accesorio las mej marca dafit colomb tiend mod onlin pago contraentreg entr ahor dafit colomb mod onlin zapato rop accesorio camp categ
p36
S'Shopping'
p37
tp38
a(S'sir daydayin'
p39
S'Arts_and_Entertainment'
p40
tp41
a(V24x7 custom car sign signup log pay sav card ship cancel return faq report infr contact car flipkart story press slash onlin shop affy program gift card flipkart first subscrib term us sec priv infr brand direct stor direct onlin shop ind mobl camera lifestyl onlin flipkart onlin shop ind pay method not tim alert includ upd ord stat pric drop produc interest sign start receiv not
p42
S'Shopping'
p43
tp44
a(Vhttp support igogo empez chat nea inscr bet reg strate salir mis favorito pedido mensas tel fono vil vil android android tel fono movil android tel fono movil android tel fono movil android tel fono movil smartphon top telefono relod telefono tel fono vil restaurado tablet tablet android ocho cor tablet android tablet android tablet android tablet android tablet android tablet tablet pulgada tablet pulgada tablet window accesorio par tablet funda bolsa par bas par rop rop muj vestido falda blusa bluson sudadera jersey muj prenda punto pantalon vaquero chaqueta abrigo rop intery rop hombr rop hombr los pantalon hombr rop deportiv rop bail tras vestido cas vestido bod vestido florista las ropa bod vestido gal ctel accesorio rop corbat bowty cint calcetin media gorro los guant las bufanda accesorio par pelo disfraz baratija accesorio relod relod intelig relod top deport relod led relod par hombr relod par muj relod par relod par pareja iphon ipad ipod cargad portatil 3000mah 5600mah 10000mah 10001mah energ auxili cargad in mbrico accesorio par iphon iphon plu funda estuch skin par iphon funda estuch skin par iphon plu cabl cargad par iphon iphon plu min protector iphon min protector iphon plu accesorio par iphon funda estuch skin bater iphon cabl dato cargad adaptad min protector accesorio par iphon iphon cabl dato cargad iphon estuch cubierta skin montura bas soport iphon bat auricul con cabl iphon altavoc min protector iphon pieza repuesto herramienta bricolas otro gadget iphon accesorio par iphon funda estuch skin min protector bat iphon otro gadget iphon accesorio par ipad ipad cabl dato cargad ipad stand ipad estuch funda skin puntero piz ipad teclado otro gadget ipad accesorio par ipod touch cabl dato los muel cargad estuch cubierta min protector otro accesorio ipod touch accesorio par celul accesorio samsung funda skin samsung bat samsung cargad cabl samsung accesorio xiaom bat vil funda skin tel fono celul auricul bluetoo par movil accesorio moderno colg par movil cargad cabl min protector repuesto accesorio auricul del tel fono celul accesorio audio gadget tel fono celul linterna linterna ultrafir vent caly led linterna cre led flish linterna linterna trustfir linterna bombill led e27 iluminac bombill led gu10 iluminac bombill led mr16 iluminac bombill led e14 iluminac led dulo em otra led bombilla adaptad convertid cargad bat accesorio flish lintern zapato zapato hombr zapato cas zapato lon los zapato deportivo zapato cuero zapato form mocasin las bota zapato muj chancleta zapato tac alto zapato plataform los zapato deportivo zapato cas zueco los zapato plano las bota zapato nov af juguet producto caly radio control quadcopt pieza quadcopt hel ptero coch barco otro radio control animac modelo modelo animac gadget animac rompecabeza sobr educac rompecabeza intelig art culo mag juguet preescol diy juguet cubo gico mec nic veh culo veh culo modelo juguet truco juguet sol peluch otro juguet elect nic par coch gps jugad coch sic gps accesorio dvd par coch coch vis traser del monit alarma coch seguridad purificad air camara par coch unidad grabac caj negro bombilla led par coch cargad coch pieza coch accesorio motociclet vigilanc dvr otro accesorio auto air libr deport top air libr accesorio vias rop aptitud yog rop levantamiento pesa rop estudio cal rop corriendo rop par actividad air libr chaqueta air libr pantalon air libr producto deport destacado gafa sol kit supervivenc multiherramienta cap ctico gorra binocul monocul cinturon ctico guant air libr nic rueda biciclet ctrica linterna antorcha camp gear and biciclet faro jula navegac bolso mochila frasco cader com aerobio salud elect nica consumo cigarrillo elect nico accesorio cigarillo elect nico atomizad par cigarillo elect nico bat par cigarillo elect nico otro accesorio par cigarillo producto caly mara videoc mara mar acc mara digit videoc mara anillo adaptad lent accesorio flash accesorio herramienta fotograf accesorio par mar digit accesorio par videoc mara caly mp3 mp4 mp5 altavoz memor flash micro tarjeta pendr usb tarjeta memor los lect tarjet memor elect nic gadget elect nica nueva herramienta multifunc pulser titanio term metro digit luc sol par jard cabl conect adaptad balanza digit sol producto verd relojo otro elect nic gadget vigilanc seguridad monit beb detect mar las mara red sistema alarm bug audio walky talky mara seguridad accesorio tarjet video captur reproduc mp3 tarjet reproduc mp3 mp3 relojo play plum mp3 play gafa sol mp3 car mp3 play reproduc mp3 2gb reproduc mp3 4gb mp3 play reproduc mp3 accesorio par mp3 caly mp3 play reproduc mp4 mp4 mp4 4gb mp4 play 8gb mp4 mp4 accesorio mp4 mp4 relod reproduc caly mp4 mp5 play 1gb reproduc mp5 2gb reproduc mp5 4gb reproduc mp5 reproduc mp5 8gb 16gb reproduc mp5 auricul las bat los consumid cr123a cr2 aa 12v lul bat bot paquet bat marco digit im computadora red computadora proyecc aparat ctricos herramienta enchuf toma herramienta man pieza bricolas compon medic lis arduino smc suministro impresor suministro elect nic oficin los lect tarjet memor cabl convers red comunicac tarjeta pci accesorio par port til laptop cargad bat accesorio par port til protect pantall funda par port til portad almohadilla port til refrigerac ventilad ordenad otro accesorio par port til mous almohadilla mous mara ordenad port til teclado tapa teclado cubierta par teclado puerto usb equipo multimed box min micr fono altavoc gadget usb otro accesorio usb elemento mod bols monedero bolso bolso mano accesorio bolsa monedero bols bolso hombro otro bolsa pulser anillo coll aret pendy otro mod caja decorativa caj regalo tocado mod broch hog oficin vent caly luc sol producto oficin bol grafo piz calculador accesorio acuarel clip tijera bolsa oficin escrib tarjetero cabez min ventilad chusco art culo producto uso cotidiano al cortau pvc dibujo adhesivo par bols medio amby llavero producto cas cocin huch relod despertad jarra min jard cas electrodom stico adorno bellez salud maquillas salud pint accesorio accesorio maquillas bolso maquillas sticky not producto par mascota grifo hog llegada nueva top vent por may sitio vil sitio vil ver detal obt descuento ximo envio pido ver todo ulefon pow 6050mah android pulgada pantall phablet fhd mtk6753 bit oct cor ghz esc ner huella dactil ram rom megap xel mara 0mp infoc m560 android pulgada smartphon fhd ip pantall mtk6753 bit oct cor ghz ram rom megap xel mara 0mp elephon p8000 android lte smartphon pulgada phablet fhd pantall mtk6753 64bit oct cor 3ghz ram rom 0mp 0mp mara huell digit func 4165mah xiaom mi4 ultram edic android smartphon pulgada pantall fhd qualcom snapdragon quad cor 5ghz mara bluetoo ram xiaom redm pulgada android smartphon snapdragon 64bit oct cor 16gb rom 2gb ram 0mp 0mp mara teclado ultr fino escritorio in mbrico rat combo jxd 509w wif fpv 720p lev mando ghz tel fono can ax gyro quadcopt rollov venc c02 ctic 8pin carg sincronizac dato por cabl pid velocidad aleac aluminio del conduc 100cm uhappy lcd tarjeta usb proyect led lum cin cas ayud hdmi vga aiwatch rond pantall del tel fono mtk2502 smartwatch monit del ritmo card aco sic bluetoo pod metro mar resist agu ver todo xiaom redm not pro pulgada android phablet qualcom snapdragon bit hex cor identificac huella dactil 3gb ram 32gb rom postery 0mp mar xiaom mi4 ultram edic android smartphon pulgada pantall fhd qualcom snapdragon quad cor 5ghz mara bluetoo ram elephon p8000 android lte smartphon pulgada phablet fhd pantall mtk6753 64bit oct cor 3ghz ram rom 0mp 0mp mara huell digit func 4165mah xiaom redm not pro pulgada android phablet qualcom snapdragon bit hex cor identificac huella dactil 3gb ram 32gb rom postery 0mp mar xiaom redm pulgada android smartphon snapdragon 64bit oct cor 16gb rom 2gb ram 0mp 0mp mara elephon p9000 pulgada android phablet mtk6755 oct cor ghz pantall fhd otg ram rom megap xel 0mp huell digit xiaom redm pulgada android smartphon snapdragon bit oct cor 16gb rom ram 0mp mara megap xel xiaom redm not pro pulgada android phablet qualcom snapdragon bit hex cor identificac huella dactil 3gb ram 32gb rom postery 0mp mar xiaom redm not pulgada android phablet helio x10 oct cor identificac huella dactil 0mp mar traser ulefon pow android phablet pulgada fhd pantall mtk6753 bit oct cor ghz esc ner huella dactil 3gb ram 16gb rom 6050mah 0mp mara xiaom redm not android phablet pulgada oct cor helio x10 huell digit 2gb 16gb 0mp mar traser xiaom redm pulgada android smartphon snapdragon bit oct cor 16gb rom ram 0mp mara megap xel elephon p8000 android lte smartphon pulgada phablet fhd pantall mtk6753 64bit oct cor 3ghz ram rom 0mp 0mp mara huell digit func 4165mah xiaom redm not android lollipop phablet pulgada pantall 64bit mtk helio x10 oct cor 16gb rom 5mp 13mp mara ulefon pow 6050mah android pulgada pantall phablet fhd mtk6753 bit oct cor ghz esc ner huella dactil ram rom megap xel mara 0mp xiaom redm not android phablet pulgada oct cor helio x10 huell digit 0mp mar traser ver todo voyo vbook ultrabook tablet window pulgada ip pantall intel cherry trail z8300 quad cor 4gb ram 64gb rom teclast x98 tablet plu intel window android pulgada qxga ip retin pantall cherry trail z8300 bit 44ghz quad cor 64gb rom mara teclast x70 phablet intel atom sof c3230 64bit quad cor pulgada ip retin pantall android 8gb mara rom otg ond v919 air tablet bit intel z3735f quad cor ghz pulgada qxga ip retin pantall window android tarjet 64gb rom mara chuw hi12 tablet window pulgada ip pantall intel cherry trail z8300 bit quad cor 44ghz funt 64gb rom mara escritur mano teclast tbook ultrabook window android pulgada ip pantall tablet intel cherry trail z8300 bit quad cor 44ghz 4gb ram 64gb rom ond v919 air tablet window android pulgada qxga ip retin pantall bit intel z3735f ghz quad cor tarjet 128gb 32gb rom mara ond v919 air tablet window android pulgada qxga ip retin pantall intel cherry trail z8300 bit 44ghz quad cor tarjet 128gb 4gb ram 64gb rom mara dual chuw hi12 tablet window pulgada ip pantall intel cherry trail z8300 bit quad cor 44ghz 64gb rom mara escritur mano ond v820w pulgada window android tablet con pantall wxga ip intel quad cor ghz z3735f 32gb rom dual mara funt teclast x98 pro tablet intel z8500 quad cor 44ghz pulgada pantall qxga ip window android 64gb mara rom voyo plu ltimo ultrabook tablet wif vers window pulgada ip pantall intel cherry trail z8300 bit quad cor ctil capacitiv 64gb rom cub iwork flag tablet window android 1ultrabook intel atom z8300 quad cor pulgada ip pantall 64gb rom xiaom pad pulgada android intel atom z8500 bit tipo cleo drupl ghz interfac pantall retin chuw vi10 pro ultrabook tablet bit intel z3736f quad cor ghz pulgada ip pantall android window rom mara bluetoo ond obook10 pulgada tablet ultrabook intel z8300 quad cor rom 0mp mar delanter wif bluetoo ver todo cas mang cort raya vestido estilo halt con fleco impreso flo vestido largo con estilo cor eleg corre espaguet est meizu lanz tel fono gam alt pro tel fono dis nico esto vestido ayud pas oto seguro cil us tel fono huella dactil libertad del mercado tablet ipad pro sobr nosotro contact nosotro servicio cli pol tica intimidad ventan leg gar devoluc todo pago env manejo rmino cond inscr bet reg strate pedido hist registrars vip mis favorito program drop ship program afiliado cotizac pedido grand cuanto impuesto que necesito pagarlo gar precio bajo hog sobr nosotro top producto contact con nosotro ayud sitemap igogo los comentario compr igogo un grand tiend onlin los gadget elect nic ust pued compr las buena calidad con precio bajo tablet vil accesorio mp3 mp4 led gadget etc ter tiend onlin los gadget elect nic igogo categ newslet pedido recy ust realizado un compr nuestr tiend tien algun nuestr tiend despu compr pedido ust pued contact con nosotro http support igogo
p45
S'Shopping'
p46
tp47
a(S'pok onlin indones facebook twit youtub pin bantu kebijak refer back top ag pok onlin indones terpercay gabung pokerclub88 sit pok onlin indones menggunak uang asl tanp bot dan ternyam ag pok onlin indones terpercay ag pok onlin indones pok onlin indones pokerclub88 ag pok onlin indones yang sudah menggunak sistem keam terkin dan dilengkap deng perangk kera dan lunak yang canggih sehingg kenyam keam dan rahas dat pribad and am bersam pokerclub88 kepuas dan kenyam pemain sang kam utamak pokerclub88 jug memilik banyak keungg dan fasilita baru salah satuny sistem refer yang ak memberik and penghasil tambah setiap mingguny semu permain dalam pokerclub88 tidak menggunak bot robot maupun staff yang ikut bermain seger daftark dir and sekarang jug dan nikmat permain fair gam pokerclub88'
p48
S'Gambling'
p49
tp50
a(Vjuego pel cula descarg sic sery formulario contacto tor pel cula sery juego podr descarg sic pel cula grat mej web tor juego sic pel cula grat tor pel cula sic juego grat zen tor tor pel cula descarg sic juego grat zen tor
p51
S'Arts_and_Entertainment'
p52
tp53
a(Vsarkar naukr recruit sarkar naukr bank job teach job job def job railway cur affair priv job scholarship nda cat wrd maharashtr cds not uptet jeecup lic scholarship eschol onlin scholarship mes recruit mescom recruit apply form ent exam not result scholarship syllab bank holiday list stat wis bank holiday pdf download read prim min rozg yojan loan apply form onlin process read ioc mathur recruit advert trad appr post vac post trad appr read ghfwd staff nurs recruit class ii oja guj gov read wapco gov recruit apply engin op advt read min def job mod nic latest recruit op read lawcet apply form pglcet not exam dat aplawcet org read uppc aro recruit uppc org steno off asst apply onlin read pat admit card pre agricult test hal ticket link vyapam nic read bhel bang recruit apply gradu non eng non tech read old post hom popul post nda exam apply form not onlin reg railway recruit group bhart fresh onlin apply form uptet upbasiceduboard gov apply form last dat cds upsc cds exam dat onlin reg form elig criter ic aiee apply form onlin exam dat reg sbi recruit not sbi post apply polytechn jeecup onlin reg apply form exam last dat step fil onlin apply form ugc cbse net syllab exam pattern form pdf fre scholarship nic onlin apply form last dat dashmott job assam job bih job chhattisgarh job delh job guj job haryan job jharkhand job keral job maharashtr job job oriss job rajasth job tamil nadu job job west beng 10th pass job 12th pass job diplom job gradu job bank job sarkar naukr railway job 12th pass job 10th pass job priv policy sitemap sarkar naukr blog sarkar naukr sarkar naukr trend bank holiday list stat wis bank holiday pdf download
p54
S'Career_and_Education'
p55
tp56
a(Vmeg fluidf gam gam kitty nba star 6f39 e0d3 mp4 1080p mkv arc mad detect onlin phantasy dimend jeruzalem high touch amv untouch girl corps altern heavy object ajin ufo cardda tcg tcg mtg war gam minecraft project eld scrolls gam avg gam muv luv rpg spor gal gam typ moon key left dead cal duty battlefield crys sport nba sery prototyp blazblu dot osu stepman gam hinokaker 07th expand americ army boy wii wii xbox ps4 playstation4 psp playst port psp nds nintendo nds ipod iphon arpg basar oroch gta gam fin fantasy nba sery patapon leagu legend tre savy dmm collect onlin onlin path exil revo lin world war onlin wow world tank blad soul pix mmorpg onlin onlin onlin onlin lun onlin onlin aion onlin onlin ter onlin onlin edd onlin onlin onlin eco aik onlin onlin onlin onlin dragon nest onlin onlin fronty mabinog onlin unlight dnf dungeon fight onlin onlin puzzl dragon project crusad quest chain chronicle lin clash clan fat grand ord divin gat dqmsl lov liv clash king rpg brav fronty onlin onlin onlin onlin onlin fre styl web onlin onlin new 81keys onlin doa onlin ogam web onlin holic2 onlin tartaro onlin lat kingdom knight onlin onlin onlin web sao onlin onlin dark blood ir onlin onlin hev onlin ac onlin duel onlin spec zero onlin onlin pri onlin sp1 onlin run mag onlin rift onlin guild war dna onlin onlin nba hold cod geass leaf key skip beat on piec fat reborn clamp ax pow black rock shoot cosplay vocaloid acg hcg diy mp3 mp3 mp3 mp3 mp3 mp3 mtv ktv ktv mtv gogobox gogobox gogobox gogobox gogobox gogobox gogobox gogobox gogobox clubbox clubbox clubbox galgam flash window linux window mac vis bas php jav cgi flash ipad mp3 ipod notebook ppc mp3 mp3 arch for discuss
p57
S'Internet_and_Telecom'
p58
tp59
a(g10
S'Shopping'
p60
tp61
a(Vnew video best video categ model login fre reg liv cam find dat reg login new video best video categ model liv cam rav blond wak lov morn blowjob watch blond hair blu ey curvy katy lohman hot curvy bab strip tight jean amaz or sex bedroom perky brunet rid boyfriend pol sof horny slend brunet amaz lesb act bed splendid blond mak sweet lov bedroom ad cameron cru tak girlfriend lak wond blu angel know tre curvy friend right way magn brunet best sex lif young naughty brunet easy seduc hot bab fantast busty brunet tak stiff prick deep muff fascin blond get long pol bedroom horny brunet want deep insid eufr spend rom afternoon horny lesb friend dazzl denis heav enjoy lick delicy shav muff horny blond beauty lov lov fantast brunet reach orgasm lov sexy blond strips work pussy stair outstand redhead fion teas erot publ perky blond get good bang lov alway ready amaz sex horny coupl mak lov picn two hotty tak turn sens pussy lick al blond penet deep bathroom slend skinny bab reach climax hot blond bedroom beauty girl get good pound hot slend blond tak slow busty brunet bed michel mclaughlin pos bed ashley rev amaz breast grocery stor horny coupl tak act bedroom jacuzz lol myluv enjoy priv tim smok hot girlfriend last xerotic par record keep requir xerotic ultim erotic tub enjoy sexiest bab stun girl dai upd erot video erot video stun nud girl sexy bab xerotic navig
p62
S'Adult'
p63
tp64
a(Vprecis ajud encont bot rio club viv bot rio meu pedido meu pedido sair feminino perfumar accord acqu acqu fresc ann capricho cecit coff egeo ely floratt fre glamo intens lily lind mak myriad nativ spa bot rio oopss thaty maquiagem esmalt acess rio boc corpo demaquil esmalt olho pint prim rosto mak col adapt mak lumin intens cal rni intens cat cabelo condicionad crem sem enxagu finalizad shampoo tratamento capil corpo banho acess rio desod esfo hidr linh sol leo sabonet rosto antissina esfo scar hidr crem limpez pel linh sol nico tratamento acn acess rio acess rio mod acess rio belez aromatizad amby banho bem est organizad outro mak palet maquiagem par celul ver mai detalh compr masculino perfumar arbo coff connect dimitr egeo fre galb malbec men portinar quas styletto uomin xtreme zaad cabelo gel fixad shampoo corpo banho desod hidr crem sabonet rosto cuidado tratamento barb barb acess rio aromatizad amby banho bem est acess rio mod organizad outro galb desod antitranspir aerosol 75g ver mai detalh compr infantil perfumar bot baby capricho petit soph spulok thaty xtreme maquiagem boc olho cabelo shampoo condicionad finalizad gel fixad corpo banho hidr sabonet leo desod acess rio linh sol bot baby hidr banho banho 150g ver mai detalh compr pres kit pres kit feminino kit masculino kit inf promo linh complet uomin black des col nia 100ml ver mai detalh compr galb des col nia 100ml ver mai detalh compr acqu fresc des col nia 110ml ver mai detalh compr mak palet maquiagem luxury cas ver mai detalh compr par hom par mulh tod perfumar forma pagamento prazo entreg regulamento compr compr segur troca devolu pergunta frequ fal conosco meu pedido grupo bot rio noss hist ria sal imprens reciclagem emb sustentabilidad trabalh grupo bot rio plano neg cio sej franqueado encont um loj revend sej revend loj bols digicert pol tic privacidad alert sobr seg digo defes consumid carg tribut ria conh linha cosm tico produto par cabelo maquiagem tratamento fac hidrat corp perfumar compr onlin bot rio compr perfum maquy cosm tico pres mai vendido perfumar interbel rcio produto belez ltda set setembro and curitib prcnpj boti_ciclo 21_15 maquiagem acess rio
p65
S'Beauty_and_Fitness'
p66
tp67
a(g10
S'Internet_and_Telecom'
p68
tp69
a(Vexit ent memb are memb support term condit priv policy off network sit dogfart arch cont feat entir black blond arch gloryhol spring thoma black coug interrac blowbang many dogfart network dogfartnetwork off dogfart network sit dogfartnetwork off hom entir dogfart network interrac movy pic
p70
S'Adult'
p71
tp72
a(S'streamcloud mak money login sign forgot password sign streamcloud inquir hom mak money new faq term serv link check contact streamcloud video shar cloud best streamcloud easy way shar fil video shar best feat spec streamcloud provid necess feat nee ord shar favourit video serv simil wid known cloud provid lik amazon cloudfront mean provid softw serv key adv simpl dirty work man encod video foc big thing meanwhil'
p73
S'Internet_and_Telecom'
p74
tp75
a(S'pleas click brows autom redirect'
p76
S'People_and_Society'
p77
tp78
a(Vhom android phim blog nick team ninj school onlin hot onlin phong truy onlin iwin onlin tri win gopet onlin mob army onlin hot avat anh onlin gam onlin gam onlin cho android lik brows sec vir ap launch bekool cool lock flappy bird rop fly ninj school jar apk io army jar apk io avat jar apk io kpah jar jad apk jar apk phong jar apk io iwin jar jad apk io gopet jar jad apk bigon jar jad apk onlin auto click max spee fix lag avat smart farm anh map jewel xforc onlin max spee fix lag auto click army onlin chi thanh auto click ninj nvhn goback fak skil hon onlin spee fix lag auto click chuy map xem tho load ninj angelchip luy skil next map sinh kpah menu next map luy xem gam tig wood pga tour golf cho tho gam gti pinbal pinbal cho tho nonstop mix tim ngh gam jurass pork con cho tho gam blood nonstop girl kore party nightclup part gam vui gam cho tho nonstop sau mix gam ninj cho tho nonstop chuy remix gam fieldrun cho tho gam anh chi tranh cho tho nonstop hoa phim chi phim phim phim chi phim phim gam offlin android gam offlin android gam offlin android gam offlin android gam offlin android gam offlin android gam onlin android gam onlin android io trong avat top cao trong lmht ngh ngh nhi thu window chuy kho trong ninj school chung sao con khi top cung khi con tan tim qua khi qua nhau thu nhau avat auto prem anh mob army ninj school prem teamob onlin team mob army teamob phong truy gam big on onlin teen teen gunny gam bigkool onlin gam onlin gam offlin gam offlin hay gam gam loft kho gam fre shop kho gam tuy kho gam vai hay kho gam kho gam chi thu kho gam kho gam vui hay gam s60 gam cho duy brows duy facebook zalo chat zing mp3 onlin tra xem youtub googl map photoshop mod edit jav tho s60 gam onlin android gam offlin android gam mua item thu android them android android thu android apk ngo play gam io jailbreak gam offlin cho io io cho io kho appl jailbreak io thu iphon gam window phon soft cho window phon thu window phon gam tuy zalo tri kem jav thu gam onlin autoclick gam android cho jav jav apk jad apk hac phon s40 hac phon s60 mod gam jav onlin thu facebook tin hay them giao flash tho trol facebook chu tho mp3 video thi nick teamob truy teen truy tranh truy truy hot girl sao tim thu trang thi kho rss wordpress phuthobay pro wap hay gam onlin wap gam tho wap mobl phuthobay pro phuthobay pro wap hay gam onlin phi cho mobl
p79
S'Games'
p80
tp81
a(Vvideo saf tour partn memb contact blog liv erot chat room london dat award report system scam fak cooky policy term condit w3c faq delet account fre onlin adult dat mess pict liv chat flirt dat zero cost limit restrict whatsoev fre sex dat websit adult dat fre sex hookup catch
p82
S'Adult'
p83
tp84
a(Vlogin reg leg outsid scor insid scor playmak athlet defend rebound reset nam posit ovr in pla ath def reb xbox ps4 michael jord hakeem olajuwon kob bry mag johnson michael jord steph curry dynam john stockton kareem abd jabb larry bird kyry irv tbt bil russel mag johnson shaquil neal dirk nowitzk kob bry carmelo anthony anthony dav wilt chamberlain tim dunt juli erv bil russel lebron jam jam crawford kevin lov smi nba2k16 myteam nba2k16 team nba2k16 play nba2k16 databas nba2k16 play databas nba2k16 pack sim nba2k16 pack sim nba2k16 play card nba2k16 card nba 2k16 myteam nba 2k16 team nba 2k16 play nba 2k16 databas nba 2k16 play databas nba 2k16 pack sim nba 2k16 pack sim nba 2k16 play card nba 2k16 card myteam team play databas play databas pack sim pack sim play card card mtdb nba 2k16 team databas nba 2k16 nba 2k16 play outsid scor michael jord filt play
p85
S'Arts_and_Entertainment'
p86
tp87
a(Vdimasmirnov dimasmirnov dimasmirnov mus dimasmirnov cent studio dimasmirnov mus dimasmirnov dimasmirnov mus dimasmirnov sia cheap thrills dimasmirnov mus appl iphon ipad dimasmirnov gadget angry bird dimasmirnov adel dimasmirnov mus mass attack dimasmirnov mus youtub dimasmirnov mus appl dimasmirnov gadget dimasmirnov dimasmirnov mus dimasmirnov googl dimasmirnov gadget instagram dimasmirnov lifestyl dimasmirnov lifestyl dimasmirnov mus instagram dimasmirnov gadget dimasmirnov dimasmirnov lifestyl dimasmirnov mus dimasmirnov dimasmirnov lifestyl on direct dimasmirnov eagl dimasmirnov mus stacy 5sta famy ikr ass nastas cappucinno nat feat kristin edg storm djs feat arth denny natanik lx24 ikr marq markuz den manhat killah feat izabel jedy feat ilail karin next andrea feat feat bahh tee twit facebook livejourn megalyr javascrib megalyr
p88
S'Arts_and_Entertainment'
p89
tp90
a(Vlog sign turn ike lamp remot control dea star lamp melany pinol brows gam show dang text driv act patrick al yesterday 00pm remain day appl fix io ipad andy orin yesterday 30pm today best deal smart pet toy playst plu cheap wip blad shep mcal yesterday 11pm smartest pet toy ev seen cheap wip blad smartphon connect kitch scal kinj deal twit cre perfect clear cocktail ic direct freez patrick al yesterday 00pm kinj yesterday 45pm lik protest lon island tak proof stupid perfect peopl talk thing ted cruz tim build nintendo siz port raspberry thorin klosowsk yesterday 30pm fold shirt occas andy orin yesterday 01pm transf not evernot appl not thorin klosowsk yesterday 30pm rec upd capit appl surpr robust littl mac ap refresh wip blad per pair courtesy amazon shep mcal yesterday 03pm amazon off pair bosch insight blad everyth nee sec raspberry hom autom project thorin klosowsk yesterday 00pm okay swallow chew gum beth skwarecki yesterday 01pm put don list forefront extr mot melany pinol yesterday 30am find right glu diy project chart melany pinol yesterday 00am book hom serv amazon get back gift card shep mcal yesterday 41am back gift card prep impact show surv plan crash airborn emerg kristin wong yesterday 30am week popul post march 18th 25th andy orin yesterday 00am get spring cle dant friday op thread transit teapot yesterday 00am sev zen story could op mind melany pinol yesterday 00am zen koan paradox riddl pay tsa precheck alask airlin mil end april kristin wong yesterday 30am tsa precheck blog nee help cont guid permit priv term us advert job rss tip download get thing don lifehack tip download get thing don turn ike lamp remot control dea star lamp may also lik sev zen story could op mind peopl upload tor instruct us audriusa1 show cre un ceil lamp sort look lik dea star star war
p91
S'News_and_Media'
p92
tp93
a(S'khu khu trung hcm khu nam saigonto hoa hoa fest tour tour new zealand myanm hoa anh xem hcm ngo brune nghi thuy voy sea saigonto tham fest chuy thuy tham quan long saigonto tri lao ngh giang chu cho hoa tam quy nam phong nha it hcm xem xem hoa qua khi new zealand chuy chuy bay kho quanh nghi khi nam xem xem hoa anh hoa malt cung trong canad tour trong tour ngo bay thu tuy tin saigonto tin travel vouch phi dulichtietkiem saigonto quy kho chung quy thanh giao tuy clos websit saigonto saigonto lich trong nuoc lich nuoc ngoa may bay thu lich dat phong khach san thuy sao'
p94
S'Travel'
p95
tp96
a(Vskip menu skip cont skip foot publ not sit map staff mail welcom kan intern airport ltd welcom kan intern airport ltd welcom kan intern airport ltd welcom kan intern airport ltd welcom kan intern airport ltd scrutinizer report mgt post ballot agm not egm not sou ind bank fed cror debt compon cost may pmc work itb atc assocy work award kitco ltd amount cror includ serv tax nomin bas half year comply report propos kan intern airport kan jun novemb not invit tend supply instal test commit ring compost pip compost unit household level mattan municip not invit tend supply instal test commit biogaspl household level mattan municip hom around kan right inform press room org chart photo gallery car arch visit count off websit kan intern airport ltd copyright pow keltron right reserv hom welcom kan intern airport ltd
p97
S'Travel'
p98
tp99
a(Vcbssports 247sports maxprep sportslin shop fantasy hom footbal basebal basketbal hockey team bracket gam nca hom scor nca tourna nca bracket expert pick nit bracket rank stand stat schedule team od wom nca bracket top class prospect rank ticket nfl hom nfl draft scor stand schedule team mock draft prospect rank stat injury transact play pow rank sup bowl ticket nba hom scor stand schedule team nba draft expert pick stat od injury transact play pow rank ticket mlb hom scor stand schedule team stat od spring train tour injury transact play expert pick pow rank ticket golf hom leaderboard schedule stat rank play mast ticket nhl nca cbs loc sit high school mma box socc hors rac nasc ten aren footbal bowl olymp ticket bracket gam round round bracket man basebal gam basebal commit basebal priz hockey gam hockey commit hockey priz footbal gam fanduel franch footbal see sport gam expert pick elit preview watch cbs sport network show list cbssn channel find boom carton doug gottlieb show tim schein minut upd cdw cbs sport desk video list liv favorit lat round pick cbs sport radio roundup podcast doug gottlieb show jim rom show march mad check liv upd bracket watch onlin view liv bracket play round round nca tourna warry surv mav usmnt fal guatemal acc kick heel story friday scor bracket expert view stil play schedule expert pick takeaway syracus not dam del lat hay badg reflect sid march real warry march hist takeaway recap dal road ahead pac playoff pict mag numb guatemal stun story chil bal boy tak selfy mess barcelon legend joh cruyff die latest socc new johnson mak stand unt bric johnson reject yog ferrel impun orang going tyl roberson get two defend putback dunk zig zag kyl wilts help lead gonzag long dist point right kiss iow stat cheerlead sit courtsid tak bal fac famy coach harbaugh unit support indian sweet crazy socc fan pil socc stad sit nic set not dam mat farrel fee zach august sweet alley oop gott hurt jam harrison stick doz needl leg nee look uv london per set team look pass mark cub bash off mav loss warry form raid don brain cte research hon ken stabl nhl pick capit clinch presid troph blu observ marc paig regain stroke opportun tim unt sunday elit eight acc affair leagu goe friday takeaway acc rul friday clinch two spot fin four spur aldridg leonard dunt park ginobil thund bracketolog conf best march mad syracus wild rid continu jim boeheim enjoy every minut road warry pac bul record win maverick klay thompson scor lead warry mav thing know nigel hay portray march mad real diff way list audio prov coach admon oregon dillon brook march mad schedule watch liv stream tip tim play rat thing know loss guatemal syracus block controvers cal seal vict elit eight bid guatemal beat us first tim ev world cup qual watch steph curry deep buzz beat bri elliot log third straight shutout blu clinch playoff spot mlb new rum march grand brantley unlik op play round round bracket upd nca bracket nca tourney headlin jon solomon tid kevin turn challeng gam lov ken berg lebron jam homecom took wrong turn bracket breakdown fin thought biggest surpr nca tourna syracus virgin preview not dam nor carolin preview oregon play irrit duk grayson al address coach michael sam rip ram say mad team patriot sign anoth weapon tom brady ad receiv dep lebron jam cava homecom tak wrong turn nba releas stat regard controvers nor carolin law footbal basebal basketbal mlb spring train los angel ram gear kob bry retir gear shop fan gear click ticket help advert sit map newslet mobl ap colleg network cho clos capt priv term mobl us agr cbssports feat liv scor new nfl footbal mlb basebal nba basketbal nhl hockey colleg basketbal footbal cbssports also sourc fantasy sport new sport cbssports sport new fantasy scor sport video march mad check liv upd bracket play
p100
S'News_and_Media'
p101
tp102
a(Vtrack ord past ord wishl profil story conceiv team blog track ord past ord wishl profil zov priv policy term condit sal onlin shop shop onlin men shirt men tee zov zov miff someth think could don someth bet list happy improv pleas let know
p103
S'Shopping'
p104
tp105
a(g10
S'Adult'
p106
tp107
a(S'hom daft pandu faq refer poker757 jud domino ag domino domino onlin pok onlin ag pok jud pok poker757 jud domino ag domino domino onlin pok onlin ag pok jud pok'
p108
S'Gambling'
p109
tp110
a(Vcurso grat id cat reg strate curso con deo salud psicolog relac humana contabilidad finanza market venta organizac empres recurso humano direcc liderazgo indust rea leg administrac secretariado trabajo seguridad lab profes administrac blic dis ofim tic softw programac internet im sonido hardw mantenimiento seguridad inform tic telecomunicac ingeny inform tic costur confecc guitarr art stica manualidad hog truco til dibujo pintur bricolas otro hobby decorac dis papiroflex origam hog decorac bisut joy canto voz piano teclado fotograf retoqu otro instrumento instrumento viento jardin planta animac fiesta teor mus bail danz mag ilusionismo bat juego educac histor ciencia cultur comunicac relig literatur lengu esp ol bellez maquillas mod cocin bebida deport ingl italiano frant esp otra lengua portugu japon alem ruso cat gallego rumano chino eusker holand griego georgiano fin rab medio amby anim agricultur ejemplo libro diario libro may clasificac las transacc comerc ejemplo fich resum homofono con puntada par bord ejemplo justificac proyecto objetivo un cart comerc uso dis libro diario ejemplo acta reun tejido par beb aprendizas basico del dibujo fras despedid derecho literario curso sobr bordado mano tipo tono voz aprend confeccion rop grat caracteristica las sangria word curso electricidad grat ejemplo planteamiento problem ejercicio bal comprobac como redact inform actividad cal orig electromagnetico uso dis libro may cort pelo video grat cuenta nomin sus ejemplo curso grat redacc ejercicio libro diario libro may cual son las caracteristica basica cart comerc como hac un fich text curso grat mej valorado visto tic educac inform tic comunicac ens anz aprendizas window reinici apag hibern suspend bloquear con solo clic famil definic evaluac funcionamiento famili ejecut como administrad window prevenc soc del delito medida seguridad ciudadan xico prevenc soc del delito xico ensayo brev agreg elimin programa inicio window derecho romano concepto sico restaur sistem window recuper dato disco duro sociolog violenc mecanismo defens soc sincroniz carpeta con skydr como cop seguridad window skydr window almacenamiento nub engord pollo parrillero galpon automatizado cambi icono carpeta window personaliz cuenta usuario window crear configur elimin publicidad instrumento market photoshop recort foto gen con medida espec fica photoshop efecto texto con objeto intelig photoshop reemplaz gen edic objeto intelig vino rosado caract stica carlo mart nez garc loygorr ion goikoetxe stell mar eiro qui ser aut destacado reg strate grat lee nuestr pol tic cooky curso grat onlin email curso idioma ingl grat frant curso cocin curso gratuito curso onlin formac gratuit curso grat mailxmail ejemplo libro diario libro may curso bienest salud salud aut destacado
p111
S'Career_and_Education'
p112
tp113
a(Vwork account testimon view ful rang fre gift read xpango work reg memb video xpango click priv policy term contact faq blog affy testimon fre mobl phon gam consol mp3 play xpango limit join xpango today xpango welcom fre gen xpango fre mobl phon gam consol xpango connect xpango fre iphon xpango count
p114
S'Shopping'
p115
tp116
a(Vgfyc let cre discov shar awesom gif amaz mom funny react gfyc cre discov shar awesom gif sorry pag requir javascrib
p117
S'Arts_and_Entertainment'
p118
tp119
a(Vemploy new school job bank job univers job colleg job ptu result exam scor card onlin ptu com look new look new ptu result bstc ent exam counsel apply onlin bstcmdsu2016 com look new look new admit mlsu admit card exam rol onlin mlsuexam com look new look new admit card rsc result exam mark card rkcl vmou com look new look new rscit mahapol admit card exam rol onlin mahapol gov com look new look new admit card stat punjab lottery week result draw win com result look new look new result rojg samach hind march april patrik rojgarsamach gov com look new look new rpsc admit card exam rol rpsconline rajasth gov com admit card look new look new admit card uniras admit card rol exam cent list uniras com admit card look new look new admit card pna architect vac com apply onlin look new job punjab priv job nhrc job apply form nhrc nic com download apply form advert look new job 12th pass job new delh stenograph ganpat visars ganesh chaturth sms marath engl hind happy wish com http lalbaugcharaj http loksatt http lalbaugcharaj http khetwadichaganras khetwadicha_ganraj_live_broadcast html http gsbsevamandal org http loksatt http andhericharaj livedarsh html look new old post hom govern job teach post sarkar naukr const post contact sarkar naukr hind result admit card datesheet answ key cut off merit cre websit mas templ blog fre sarkar naukr hind new sarkar naukr websit recruit port ind cov latest new admit apply form exam dat alosn admit card result circul may apply onlin cur govern vac ind cent stat job giv view find typ car rel serv govt job priv naurk sarkar naukr hind result admit card datesheet answ key cut off merit ptu result exam scor card onlin ptu latest new ganesh chaturth sms govern job teach post
p120
S'Arts_and_Entertainment'
p121
tp122
a(g10
S'News_and_Media'
p123
tp124
a(Vwishl sign reg hom miss award branch car account promo custom serv corn diy tip til class guid pay ship broch frank built ov view bul brahm gril head view heim puppy paint view geberit whit monoli puro bowl softclos view geberit deep sea monoli puro bowl softclos view bul singl sid burn view castelvetro eramos brown lap view frank inset wat wast kit view inalco porcelain wal til view frank wast dispos view novogr batm dec view natuzz edit nero denv seat view grespan ocaso negro view grespan her til view abit ego ear view natuzz edit nero denv seat view alcalagr quarc beig rustico view rocers genes marron view abit ego ear struttura brick view heim rout paint view alcalagr quarc negro view castelvetro eramos beig lap view geberit black monoli puro bowl softclos view merid wick set view view new supply log hom pay ship branch loc new produc contact shop pow prestashop wilcon build depot stay connect custom serv corn frank built ov
p125
S'Home_and_Garden'
p126
tp127
a(Vbananaidol lik hom run man banan infinit challeng banan law jungl banan got marry banan got marry joy banan got marry banan week idol banan pleas refrig banan strange bedfellow banan mask sing banan showtim infinit banan twic priv lif banan lif dar talk show hello pleas refrig huiyeol sketchbook hid sing non summit talk heal camp twic priv lif lovelys monst right burn you beauty stat show song snl kore find laugh peopl mybaby phys vary fashion tal scout mary friend hous two yoo sug man lat night food meet week idol radio star get beauty tax brom new hous sel tim showtim infinit kor star ol secret recip happy togeth problem man star coupl mickey mous club cod friend flow abl mak know broth three king liv alon twic law jungl world chang quiz show mus bank styl log produc devil runway infinit challeng kung shaolin rac littl televid strange bedfellow immort song tasty road perform art baby got marry star king pop star run man inkigayo dream team on night day mask sing sect real man comedy big leagu gag concert kor spec new year pop kor ceremony superm back fashion body show tal scout chin hotel sel tim let eat spec mary tast oth hunt three meal day friend flow abl mak showtim infinit know broth sbs three king school pop star stardust kung shaolin school song beauty stat show express you express unpretty rap star secret weapon din bar rom week kore fash king whit swan lif dar let let beauty flowerh4 ao wond day tak car dad yam return look styl sixteen crim scen mnet dant alon lov brav famy steal man eco vil anim excit ind see voic zodiac tut mercy anim farm bachel party sup idol chart show sing room start work mix match hello hello stranger dad going shinhw show mast chef everybody get styl show money geni entertain kore next top model mus talk sup star star flow sns sns expedit fly first mag ey friend macau taiw man sev tast law city shar hous jessic kryst kiss cry hero mnet thing show vitamin beatl cod get beauty hello baby sesam play school vary liv hom four men wom got marry glob strong heart sist flow infinit girl invinc you rom idol twic priv lif gfriend lovelys showtim infinit ral 1cm gfriend styl taeng9cam lovelys diary ep8 red velvet ar ar handsom flow girl cast nav liv eight beauty op ao snsd channel channel snsd 4minute video clc queen gam yur cut ol map sixteen surplin snsd amaz taetiseo kar project pink infinit sist midnight hong kong monst right exo channel showtim infinit teen top air new begin vixx season e34 got2day got7 ep11 up10tion btob beat seventeen project com ftisland real got7 excit ind on night study fly shinhw show sup junio guest hous infinit infinit king rank bts am hustl lif exo pink infinit got7 btob xoxo exo win 20th century boy mnet win channel bts block minut teen top nev stop sbs mtv diary est ep1 school ral styl taeng9cam two young heart tag lik yur cut ol map gogo sist hologram har fre mon stupid mnet rain effect mnet bananaidol priv policy leg disclaim report problem contact bananaidol bananaidol bananaidol bananaidol bananaidol hot show today banan ago
p128
S'Arts_and_Entertainment'
p129
tp130
a(S'bank ind'
p131
S'Finance'
p132
tp133
a(Vimport link liverpool birmingham new york city glasgow dublin amsterdam krab koh phi phi ayutthay phuket shangha seo kanchanabur london par hat ya chiang rai cha duba sch tzberg sydney hano beid las vega jakart rom osak manil guangzhou san francisco amsterdam melbourn los angel siem reap kyoto berlin tokyo nuremberg new delh munich pragu phnom penh vienn mil barcelon frankfurt main chicago mumba edinburgh istanb ven boston auckland miam langkaw orlando trivago trivago argentin trivago austral trivago belg trivago brasil trivago trivago canad trivago esko trivago chil trivago colomb trivago danmark trivago deutschland trivago ecuad trivago trivago esp trivago frant trivago trivago hrvatska trivago ind trivago indones trivago ireland trivago ital trivago magyarorsz trivago malays trivago xico trivago nederland trivago new zealand trivago norg trivago sterreich trivago per trivago philippin trivago polsk trivago portug trivago trivago trivago rom nia trivago trivago schweiz trivago singap trivago slovenij trivago slovensko trivago sou afric trivago srbija trivago suom trivago sverig trivago trivago rkiy trivago ua trivago uruguay trivago us trivago nam trivago trivago trivago chin malays frant austral indones sou kore germany ita ind spain switzerland californ nep austr taiw new zealand turkey czech republ lao swed russ mexico greec denmark facebook twit instagram googl plu youtub pinterest linkedin mobl ap search checkin travel inspir sit map mil visit us trivago every mon search comp hotel pric hotel book sit trivago world top hotel pric comparison know everyth hotel trivago world largest hotel search hotel avail star seem problem internet connect pleas refresh pag us button
p134
S'Travel'
p135
tp136
a(Vadv search login reg brows tor popul tor today tor yesterday tor movy tor tor mus tor adult porn tor softw tor gam tor anim tor book tor pict tor mobl tor tor search cloud sit stat commun faq view extrator east competit end sunday ria blam youtub low art royal pol charg man circumv pir sit blockad household subscrib video streaming serv fbi found way unlock iphon without appl help dutch ant pir ag shut tor releas group russ want ban discuss pir blockl circumv netflix start send dmca takedown request fight illeg broadcast peopl arrest best vpn big vpn comparison chart view view view view view view extrator today tor yesterday tor view batm superm dawn just cam xvid dingo act star war episod vii forc awak 1080p bluray dts x264 etrg act nat born prankst dvdrip xvid ac3 evo comedy batm superm dawn just cam x264 unknown act rocky handsom hind 1cd dvdscr x264 aac hon3y bollywood curs witch tre brrip xvid ac3 evo hor id hdrip xvid etrg sci backtrack 1080p bluray x264 dts jyk dram rocky handsom desiscr 1cdrip x264 aac ddr bollywood ste car dvdrip xvid ac3 evo dram view grim s05e14 hdtv x264 fum ettv grim sleepy hollow s03e16 hdtv x264 fum ettv sleepy hollow second chant s01e11 hdtv x264 kil ettv black sail s03e10 webrip x264 fum ettv bit s03e07 hdtv x264 kil ettv bit stan lee lucky man s01e10 repack hdtv x264 tla ettv slash s01e05 hdtv x264 bajskorv ettv grim s05e14 hdtv xvid fum ettv sleepy hollow s03e16 hdtv xvid fum ettv real tim bil mah hdtv x264 batv ettv view mp3 new releas week glodl mus zayn mind min target delux edit pop cub flac tfm latin artillery penal perceiv 320ak met styl ultim collect 2cd flac flac young thug slim season itun m4a hunt frg hip hop michel issu vog itun m4a hunt frg david essex best flac soup flac elis 320kbps pir shovon pop zayn mind min target exclud edit 320kbps pir shovon pop view gat episod complet 720p lucifer22 anim lolicon nimo astarot omoch 1080p x264 aac anim osamu musash h264 mut anim s01e11 mult 1080p bluray x264 shinigam anim animerg boku dak ina mach eras complet 1080p khatake2 anim animerg naruto shippuud 10bit 720p jrr anim view atl quest solitair mahjong card wendy99 maraya21 window vampir legend count new orl collect edit window flow fiest match puzzl wendy99 maraya21 window infern hel veng multi5 upload naswar zohaib window view learn python weekend python begin ebook improv learn ebook raspberry begin 6th edit ebook delicy pizz recip ronin99 ebook sin city com complet ronin99 com emb cookbook ebook gun digest march pdf zeke23 magazin digit photograph issu robert magazin op sourc april robert magazin march robert magazin view youtub video download pro patch 4realtorrentz window video ap youtub mus download ser 4realtorrentz window dvd tool iobit uninstal pro multilangu port robert window mast pdf edit mac mac599 mac tot video2gif mac mac599 mac ytd video download port robert window imoby anyt mac mac599 mac record mac mac599 mac adob acrob pro lit port robert window view breathtak nat wallpap 2560x1600 set wallpap near nak sexy bikin girl eclips wallpap photo poonam pandey mak lust wallpap sherlyn chopr hot sexy pic wallpap near nak pict model beth humphrey eclips wallpap boob girl cant hold dress pict set wallpap best anim wallpap set wallpap adrian lim sens erot pict pack wallpap gemm arterton hot beauty pict pict pict ev longor sens erot pict pack wallpap view tunein radio pro liv radio build softw android shazam ent softw android pixelphon pro softw android talk tom mod unlimit money apk xpoz gam android eset nod32 mobl sec amp antivir prem apk int key ssec softw android view milf lik big park sways gfs mom want bad brazz new march video as addict new harmony film dvd rip dvd diabol step mom seduc dvdrip split scen new releas march video girlfriend moth sweet sin web split scen new dvd joymi august am cal lov new video fil orgasm pur pass xxx web split scen dvd sist big round ass digit sin new march split scen pre releas dvd bigbuttslikeitbig brazz angelin valentin two bush ass 1080p video girlsdoporn year old e360 new video bangpov kendr lust big booty milf giv raw uncut new march video view learn linux command lin bas train gmail adv tip trick train introduc kal linux train pow posit system jason capit train cre amaz superhero adob photoshop train cissp cert train domain train video train law jason capit train lov cod jason capit train design pattern cre train az develop train hom brows tor upload tor stat for faq login copyright extrator extrator world largest bittor system new popul tor
p137
S'Internet_and_Telecom'
p138
tp139
a(S'vis search engin kid pow edit googl custom search web im new video kiddl kid saf search priv policy contact sit block keyword block kiddl vis search engin kid pow edit googl custom search kiddl vis search engin kid vis search engin kid pow edit googl custom search'
p140
S'Internet_and_Telecom'
p141
tp142
a(Vsexencount term condit priv policy prev next hom search help term us priv policy record keep requir comply stat clos forgot password reg sexencount best plac fun soc hook meet peopl onlin chat much sexencount spic lif discreet encount reg fre fre everyth join meet someon mat thousand singl wait meet liv onlin dat sexencount sexencount glob onlin dat serv singl find rom almost every country around world meet singl are hop try onlin dat
p143
S'Adult'
p144
tp145
a(S'inicio grupo deltron producto distribuid login servicio cnico man cont cteno ac8gbusbcz50cpe nbhpl9m06la nbhpl9l90la cpam4a10 7890k olvid contras busqued avanzad comuniques con nosotro infodeltron deltron infodnet deltron deltron part computador notebook tablet servid accesorio per seg descrip marc codigo cod fabr minicodigo busc busqued avanzad'
p146
S'Career_and_Education'
p147
tp148
a(Vadtech rubicon ligat doubleclick appnex yieldr bidswitch mediama tmg turn criteo adform sociom googl rocketfuel thetradedesk adar quantcast amazon tubemog myth groupm serv openx zoom blueka valueclick emedy xax facebook twit youtub vimeo flickr tumblr img een kudtkoekiewal omd dat moet van kudtkoekiewet wat doen cooky functionel cooky ak supermegahandig cooky scroll omla voor meer informaty
p149
S'Arts_and_Entertainment'
p150
tp151
a(Ven javascrib support research titl pag mak cit guid ap teach support login sign research titl pag mak ap teach cit guid support login sign mla ap chicago websit book video film journ databas opt cop past man cit help easybib pro advert ap top idea contact cit guid scholar academy imagin easy solv llc priv policy term us autom work cit bibliograph format mla ap chicago turab cit styl support 7th edit mla easybib fre bibliograph gen mla ap chicago cit styl gen cit mla ap chicago form bibliograph sav hour mak work cit pag autom partn sourc typ
p152
S'Career_and_Education'
p153
tp154
a(Vutam feld mengena feld logo terdahulu mant menter mant pengerus mant pengarah bes pers feld korp lat belakang mis vis logo lembag pengarah direktor jab pejab cart organisas lagu anugerah kecemerlang piagam pelang pengurus pejab pengarah bes unit audit dalam unit undang undang unit pengurus risiko integrit unit komunikas korp timb pengarah bes pembangun ekonom gedung mak negar gmn peladang pembangun usahaw hal ehw tanam semul timb pengarah bes pengurus pentadbir kewang sumb manus pengurus tanah timb pengarah bes pembangun komunit pembangun komunit inovas pembangun generas baru pendidik pengurus wilayah sumb foto video audio muat turun 1suara booklet feld hubung kam ibu pejab feld pejab wilayah rancang maklumbala program gempak keluarg feld astro kerteh lih sepenuhny perpindah unit latih institut semarak feld bang bul keusahaw jab pembangun usahaw lih selanjutny kenyata taw hingg lih sepenuhny kenyata taw hingg kenyata taw hingg lih selanjutny start prev next end mahu feld jad kuas bes ekonom feld baga aur deng teb feld unit sas satu trof star jengk kebangga feld unit stad jengk penta akhir lig feld stad baharu suntik semang pasuk feld unit feld bin rumah pahang lih selanjutny govern day kump feld program ak gempak keluarg feld cyc challeng pelanc pertubuh kam anak feld kaf malays ikof maklumbala inovas penyat statistik webmail lih selanjutny penaf pet lam das privas das keselam soal lazim top makl bala ikl jaw kosong hubung kam program kasih feld 1suara adu cadang pinjam komput tabung kebajik ess feld singl sign webmel drdok penyat kpf mss bantu pinjam pendidik bantu komput program aktivit feld pinjam pembes rumah bantu khair kem tabung kebajik lembag kemaju tanah persekutu feld lembag kemaju tanah persekutu feld utam capt display non
p155
S'Business_and_Industry'
p156
tp157
a(Vacc der menu princip acc der contenu acc der pied pag ferm savoir plu inscrib connect continu connect clos sess particu professionnel entrepr com ant collection chronopost banqu post post mobl docapost mediapost viapost geopost asend group post candid post rubr courry col produit serv calc tar offr cial nem conseil prat chart eng contact serv consom banqu post offr banqu post contact banqu post acc der sit banqu post vie num riqu serv num riqu personnel conseil prat contact serv consom post mobl offr post mobl conseil prat contact post mobl acc der bout des timbr person command des timbr cour command des beaux timbr command des post command des cart abs nag fair gard exp dier son courry envoy un let recommand lign envoy un let lign affranchir chez soi colissimo affranchir chez soi envo chronopost express imprim des timbr chez soi quel num lect produit serv produit serv par quel num couvrir connect inscrib couvrir connect inscrib plan sit produit serv calc tar offr cial nem conseil prat chart eng contact serv consom offr banqu post contact banqu post acc der sit banqu post serv num riqu personnel conseil prat contact serv consom offr post mobl conseil prat contact post mobl condit ral util condit ral vent ment gal inform sur les cooky bureaux post les serv post pour les particu envo suiv courry col ach lign tar postaux les serv post pour les particu envo suiv courry col ach lign tar postaux suivr un let colissimo envo chronopost vos mail tout confy bar un navig
p158
S'Business_and_Industry'
p159
tp160
a(g10
S'People_and_Society'
p161
tp162
a(Vlog siss registreeru minu numid minu kuulutus minu soodustus minu deposiidid minu valikud minu bilanss sead auto kaubad varuosad kommertss idukid rud haagiselamud mootorsaanid mototransport iduautod teenus vee idukid muud iduvahendid kinnisvar gara korterid maat kid majad majaosad teenus ripinnad muu administratiivt ehit kinnisvar elektroonik telekommunikatsioon energeetik fin harid tead infotehnoloog juhtimin klienditeenind kultu meelelahut meed llumajand riig avalik hald tehnik mehaanik tervishoid farmaats transport logistik tur ivad jalatsid aksessuaarid karnevalikost mid last aksessuaarid last jal last ivad leiunurk meest aksessuaarid meest jal meest ivad naist aksessuaarid kotid naist jal naist ivad pulmariid univorm muud riid kodu aed aed istikud aknad basseinid spa dekoratsioonid elekt elekt dmed koduhooldamin tolmuimejad kodumasinad tmin ventilatsioon lambid valgust magamistub mesind bel remont seadm santehnik gitub koduba toit kollektsiooniveinid laps lapsevankrid lastem bel lasteraamatud lastetoit nguasjad ohut terv turvatoolid vahendid vannitamin muu terv ilu biolisandid depilatsioon keh er udm juust korrashoid kehakaalu alandamin ned mak massa nah korrashoid naturaaln teraap gemin parf meer retseptivabad preparaadid solaar suu piirkonn korrashoid tatoveeringud tervishoid mobiiltelefonid akud hoidjad kaablid adapterid kaitsekil korpus tagaka kotid laadijad dokid mobiiltelefonid lukaardid peakomplektid rvaklapid telefonikaardid sim varuosad muu arvutid tahvelarvutid arvut lisaseadm kaablid adapterid klaviatuurid hiir sisendseadm komponendid varuosad vakettad lupulgad lauaarvutid monitorid projektorid printerid skannerid tarvikud learvutid tarkvar vanemad esem rguseadm ipad tahvelarvutid ipad tahvelarvutit tarvikud muu sporditarb fit golf iluuisutamin jaht jalgrattad kalap lumelau suusasport paintbal airsoft ratsasport rulluisud spordijalatsid spordir ivad sukeldumin surfamin ten muu juveelitoot kellad amuletid eht lastel eht meestel etnil juuksekaunistus kaelakee ripatsid karbid kulumatrejalid kellad rud sit rvar ngad litrid prossid klambrid rmus vanemad kaunistus rismetallid muu elektroonik gps seadm gadget kaabel sat koduaudio kodukino lauatelefonid peilerid mp3 lisaseadm mobiiln audio video raadiod telerid vanemad elektroonik seadm ipod mp3 ngijad muu lis om kuulut vaat ik elektriskuuterid toonerid tindid teostam ehitustood laen kinnisvar tagatisel perspektiivn projekt veebileht loomin poed lehek ljed eksklusiivs meest kellad autogaasiseadm hyunda sant autod korra remontivajavad avariil veoteenus autoremont ostam autod iga tehnil seisukorra laenud targad soodsad laenud kaubiku rent an rendil kaubikut rent iphon ipad ekraan vahet soodushinnag parf mid kosmeetik juuksehoold veoteenus kaubikug hinnad kokkuleppel autoremont diagnoostik elektriskuut 500w teler puldid lai valik suur valik arvuteid garanti relmak okolaadimassa suitsuah multiliftkast kallurkontin saunaahjud autov rvid autod rvimisek vajalikud tarvikud velotakso velorik pedicab tricyc riks eest simeik haljastust pinnas planeerimiset lvimuru rajamin lammutust autod kokkuost parim hinnag toyot avens diisel ven metalluks mobiiltelefonid tahvelarvutid remont appl watch 42mm black vanavar kull bed kokkuost hea hinnag vaskkaabel 3x1 soodustus moodn puutetundlik silikoon ekel iduauto pigipesu sivahatamin salongipuhast lasnam autopesula kun stiils naist teksas salendavad termoefektig rinnahoidj saun shap kokkupandav ukerata topelt tagaratast led valgustuseg eksklusiivs jahimeh noad kun kuulutus reklaam hinnakir kutsu pru ab kuulutus lis kuulut soovitatavad kuulutus kuulutus soodustus evapakkumin soodustust arhy ettev tetel kontaktinfo lepingud reeglid lis kuulut ost mid vajad okidok kuulutus kuulutus soovitatavad kuulutus auto okidok okidok
p163
S'Shopping'
p164
tp165
a(Vlangkah extract menggabungk fil ber part langkah resum download deng idm lewat linkdecrypt lewat internet posit kumpulbag via datafilehost via solidfil window pro integr march ful kuyha sistem operas window xilisoft video convert ultim terbaru kuyha convert multimed autodesk autocad terbaru ful vert kuyha design graph softw iobit driv boost pro ful terbaru kuyha softw system tool tool util ruf build grat terbaru kuyha sistem operas softw tool driverpack solv ful terbaru kuyha softw system tool next pes vert cek keasl window googl chrome koleks semu adob photoshop microsoft off semu vers mozill firefox window genuin boot bit window genuin boot bit window lit bit window lit bit window pro aio window enterpr fin bit window enterpr fin bit window pro fin window load daz window origin boot winr audio edit softw develop softw design web softw screen capt softw video edit softw kuyha android19 dot officialp video car extract fil ber part set shutdown otom idm fungs ad dat recovery langkah memasuk password langkah mount fil iso membu boot flashdisk langkah burn fil iso langkah mount fil iso menerapk them window membu boot iso kuyha follow blog click fre download softw ful vert terbaru window ful iso android apk fin latest vert download gam kuyha grat download softw gam terbaru window pro integr march ful top week window pro integr march ful yuk mar yang udah nunggu nunggu window pro integr march ful monggo rampok intergr maret in merupak window yang telah diintegr kan upd sampa maret
p166
S'Computer_and_Electronics'
p167
tp168
a(Vterm us new fast web bas proxy serv show adv proxy opt web proxy project priv policy term us disclaim act stat unblock access block websit brows anonym hid trac protect priv unblockaccess unblock access websit unblock websit brows anonym protect priv us fre web proxy unblock access block websit bypass network restrict brows websit anonym check websit stat brows websit priv risk websit track act us proxy serv hid trac hid address web proxy fre us fast requir reg us serv agr term us
p169
S'Internet_and_Telecom'
p170
tp171
a(g10
S'Career_and_Education'
p172
tp173
a(Vengl man kind show interest maxim us nat story grain bis hen eg mus rol med soc med play develop mus genr spec radio televid video record filipino ano ang ibig sabihin nasa ang kabataang naglalaro magagandang sandal kanilang mga pangarap kasiglah alang alang ikabubut kanilang bay relig sint war begin mind men mind men defens peac must construct mean ar panlipun paano nabago ang pamumuhay mamamay nasakop mga bans silangang timog silangang asy ar panlipun paano nabago ang pamumuhay mamamay nasakop mga bans silangang timog silangang asy engl socy benefit famy engl among issu think speak valu riv dream filipino juan isam agend engl wat insid jar repres math find surfac are canva roof neglect round surfac top ent op circ tent roof trapezoid sid whos bas form rectangl world langu pinakikialam ang gamit may gamit engl math two consecut od numb three tim first twic second two od numb phys tabl pair org appear rel pair org least rel say math two perpendicul chord divid circ radi 13cm fpur part perpendicul dist chord 5cm cent circ find are tje ar panlipun sinu sino ang mga kilalang tao jap math met hollow bar whos cross sect dimend shown weigh 8x10 meas leng determin mass met bar squ hol sect filipino pagpapalawak pananaw technolog hom econom explain goal object rur urb develop commun extend filipino halimbaw dokumentaryong pantelebisyon ar panlipun discuss vary point would cont upon writ brows filipino magbigay reaksyon tungkol mas mabut mag mahirap alipin dukhang panginoon relig par story bibl filipino ano ang maa affect domain kwentong kung bakit umu ost500 dav1dj0hngabr13l humandril divinep jannajoyd cheahjimmy jona88 bruhitsashley victoria26 edzel jessaminelacab term us contact receiv point ap stor googl play brain thailand brain brain brain brain cooky policy brain stud stud brain plac learn world largest soc learn network stud brain stud stud quest everyth answ everyth search quest brainliest quest get brain ap
p174
S'Career_and_Education'
p175
tp176
a(S'land pag kem huk dan hak asas manus republik indones'
p177
S'Law_and_Government'
p178
tp179
a(g10
S'Shopping'
p180
tp181
a(g10
S'Health'
p182
tp183
a(g10
S'Career_and_Education'
p184
tp185
a(g10
S'Law_and_Government'
p186
tp187
a(Vview profil logout movy showtim new promot loc contact show com soon promot book ticket show com soon showtim new promot starclub benefit faq car loc contact term condit
p188
S'Shopping'
p189
tp190
a(S'espacio tsu inicio nosotro producto revendedor exclusiv compra viv tsu contacto info info info rmino cond tsu cosm tico'
p191
S'Health'
p192
tp193
a(Vskip cont hom daft fask cek tagih bpjs pent bpjs keseh bpjs ketenagakerja pen kasih berit kirim pertanya daft pertanya syar ketentu revolus ment bpjs ketenagakerja read bpjs ketenagakerja bpjs ketenagakerja revolus ment jumlah pesert bpjs keseh maret read bpjs keseh bpjs keseh pesert car klaim kecelaka kerj bpjs ketenagakerja read bpjs ketenagakerja bpjs ketenagakerja kecelaka klaim setujukah jokow bpjs keseh naik read bpjs keseh bpjs keseh jokow naik nger at baru dend bpjs keseh read bpjs keseh at bpjs keseh dend ahok ancam dirut rsud tolak pasy bpjs read bpjs keseh ahok budh asih bpjs keseh bangkrut read bpjs keseh bangkrut bpjs keseh apapun bayarny cek read bpjs keseh sms cent lowong bpjs ketenagakerja maret read bpjs ketenagakerja bpjs ketenagakerja cso lowong pegawa bpjs keseh ogah paka bpjs read bpjs keseh inheal pegawa revolus ment bpjs ketenagakerja jumlah pesert bpjs keseh maret car klaim kecelaka kerj bpjs ketenagakerja setujukah jokow bpjs keseh naik nger at baru dend bpjs keseh car bpjs prim bpjs pcar bpjs keseh car bpjs prim car bpjs icon on wordpress info seput bpjs terlengkap bpjs onlin info seput bpjs terlengkap revolus ment bpjs ketenagakerja setelah sebelumny bpjs keseh yang menjad laborator implementas gerak revolus ment yang gadang oleh presid jokow kin gilir bpjs ketenagakerja dimint menjad pelop gnrm gerak nas revolus ment pad lingkup kerj bpjs ketenagakerja hal tersebut disampaik oleh menter koordin pmk ibu puan maharan yang menyatak terdap tig jen landas utam gerak revolus ment read
p194
S'Shopping'
p195
tp196
a(Vhom novidad mai lida curiosidad hist ria nci tecnolog lug constru mundo anim ter creepypast entretenimento deo envy sua sugest curiosidad pessoa que tiveram car pau fingir ncer par ganh dinheiro coisa que antigo testamento bli pro voc faz todo dia problema secreto que pessoa loira nunc compreend tecnolog computad que prev futuro cust um fortun que pod acontec quem sofr acid carro exper nci quas mort tipo eqm que voc sab que existiam nci doen sinistra passado que parecem ter film ter fato choc sobr nosso subconscy registro hist ria monit beb que caus arrepio mundo anim im perturbadora hist ria bastid mai hor vei aind incr vei psula tempo descoberta acid propaganda bizarra que eram veiculada dur guerr mund legado idad med que usamo hoj dia profec perturbador diz que is vai atac amanh que mundo pod prepar film ter rea que seu diret foram investigado caso que bul passou dos limit acabou trag dia coisa mai assustadora dita por cri ver mai fal conosco anunt expedy mai curiosidad mundo toda vida que voc tev dia enfim solucionada curiosidad matou gato porqu el sab ond procur fato desconhecido curiosidad tecnolog hist ria oportunidad explor mundo sem sair seu sof coisa surpreend sobr vil disney dia at coisa surpreend sobr vil disney voc dos desenho disney fizemo ess mat ria vil alguma curiosidad sobr el que provavel voc nunc escutou
p197
S'News_and_Media'
p198
tp199
a(g10
S'Career_and_Education'
p200
tp201
a(g10
S'Sports'
p202
tp203
a(S'xem ngay xem thanh kho cao cao 5cm cao 7cm cao 9cm cao 11cm qua ngang qua cao cao 5cm cao 7cm cao 9cm cao 11cm trung cao trung tay chat mua ngay chat mua ngay chat mua ngay chat mua ngay chat mua ngay chat mua ngay chat mua ngay chat mua ngay chat mua ngay chat mua ngay chat mua ngay chat mua ngay chat mua ngay chat mua ngay chat mua ngay chat mua ngay chat mua ngay chat mua ngay chat mua ngay chat mua ngay chat mua ngay chat mua ngay chat mua ngay chat mua ngay chat mua ngay chat mua ngay chat mua ngay chat mua ngay chat mua ngay chat mua ngay chat mua ngay chat mua ngay chat mua ngay chat mua ngay chat mua ngay thi tuy tin juno sit map juno shop thanh giao harav juno trang nam juno cho phong trang juno trang juno trung thanh txt015 chuy tin cho giao tay'
p204
S'Shopping'
p205
tp206
a(Vent reg hom contest gym problemset group rat ap cup round country city org view zlobob errichto edvard xello amd chrome swistakk rubanenko view chrome topcod op algorithm round codevnorg mincut vert edvard edit educ codeforc round praveendhinw invit codechef march lunchtim edvard educ codeforc round codeforc round tut ivan100sic us edit codeforc round div tsunaminextyear topcod op kick ivplay track codeforc educ round darkshadow sci train collab competit program anim gif bugday someth wrong solv utkununfakes solv codeforc bet round deemo april fool day contest annount invit march clash researcher_schol help requir string algorithm rol hash rabin karp errichto indiahack fin edit mikemirzayanov codeforc extr reg round bado jeff new codeforc ecnerw 8vc vent cup fin round edit apple_tree_34 jbo sergeifedorov codeforc round tut god_zon pth cousin quest twe keep school competit program swift trick havaliz codeforc round edit detail edvard hist march msk unprost aminr bayram al bekmyr atayev dalex lewin dalex delin unprost aminr allllekssss dalex lewin read educ round annount edvard mikemirzayanov hist read codeforc reg mikemirzayanov errichto check tim i_love_tanya_romanova glebshp mikemirzayanov lewin k790alex sokolov errichto i_love_tanya_romanova errichto belowthebelt raviojha2105 johnasselt stonefeang link contest andrew volchek ik read indiahack onlin edit div div indiahack hackerear onlin mir dont ask rat bear limak errichto yummy friday march utc last round desert97 pi37 ksun48 waterfal glebshp mikemirzayanov abacadae wing alexfetisov two round problem set rat mikemirzayanov ant alex_2oo8 naivena eddy1021 read croc elimin round croc elimin round rat unoff edit croc croc yummy mikemirzayanov march utc http codeforc blog entry read croc mikemirzayanov codeforc mobl vert codeforc program competit contest program commun codeforc educ codeforc round
p207
S'Computer_and_Electronics'
p208
tp209
a(Vhigh qual mp4 video japanes japanes porn movy ind ind porn video as as porn video teen teen porn video am am porn video an an porn video ass ass sex video ass lick ass lick porn video bab bab porn video babysit babysit porn video bbw chubby bbw porn video beach beach voy video bab bab porn video big dick big dick porn video big tit big tit porn video bisex bisex porn video blond blond porn video blowjob blowjob porn video bond bond sex video brazil brazil porn video brid brid porn video brunet brunet porn video cartoon cartoon porn video cast porn cast video celebr nud celebr video cfnm cfnm porn video cheerlead sexy cheerlead porn video colleg colleg porn video creampy creampy porn video cumshot cumshot porn video deep throats deep throat porn video doct doct porn video coug sexy coug wom porn video domin domin porn video tub drunk drunk porn video ebony ebony porn video fac fac porn video fet fet sex video fist fist porn video funny funny porn video gangbang gangbang porn video gay gay porn video girlfriend girlfriend sex video glory hol glory hol porn video goth goth porn video granny granny porn video group sex group sex video hairy hairy porn video handjob handjob porn video hardc hardc porn video hid cam hid cam video homemad homem porn video interrac interrac porn video latex latex fet porn video latin latin porn video lesb lesb porn video machin sex machin sex video mass mass sex video masturb masturb porn video mat mat porn video milf milf porn video mom mom porn video off off sex video orgy orgy porn video outdo outdo sex video pantyh pantyh porn video party party porn video petit petit porn video pierc pierc porn video piss piss porn video pornst pornst porn video pov pov porn movy pregn pregn porn movy publ publ porn movy redhead redhead porn video russ russ porn video sex toy dildo sex toy porn video shem shem porn video sleep sleep porn video smal tit smal tit porn video show show porn video solo solo porn video spank spank porn video softc softc video spandex spandex porn video span span porno video squirt squirt porn video stock stock porn video strapon strapon sex video strip stripping girl video swallow swallow porn video teach teach porn movy threesome threesomes porn video vint vint porn video webcam webcam porn video wif wif sex video wtf wtf porn video redwap fre ful leng xxx movy 3gp mp4 sex video download mobl desktop redwap info fre xxx mp4 3gp porn video download redwap info redwap info latest mobl porn video redwap xxx sex video fre 3gp porn redwap info
p210
S'Adult'
p211
tp212
a(Vscrabble che scrabble help word find crossword solv dict word find sign crossword solv scrabble che scrabble help word find crossword solv word find boggl text twist sudoku anagram solv word gam help word friend che word word word jumbl word search ful board che cryptogram crossword solv word friend che scrabble che lex che wordfeud che word find play scrabble word friend word find 4x4 boggl 5x5 boggl wild card boggl quick boggl text twist word jumbl solv crossword answ word search puzzl dict beat che play scrabble crossword gam word friend word find word word gam word sudoku word search mak fre print word gam anagram solv anagram 5x5 boggl crossword puzzl clu get help play scrabble crossword gam unscrambl word word word word word unscrambl word anagram dai cryptogram word morph gam anagram anagram solv scramble word find boggl solv boggl solv scramble friend word find word start word contain word end word friend help crossword challeng cryptogram solv quick boggl word end word morph find dai jumbl solv crossword help crossword solv pig latin polygon word gam wordplay dict wild card boggl word contain word list play scrabble crossword gam off word list word friend mobl word find morph word text twist solv crossword solv fre crossword puzzl solv crossword solv onlin crossword solv crossword puzzl solv boggl help boggl onlin worduku 5x5 boggl polygon puzzl clu crossword clu crossword answ clu crossword clu answ find crossword clu crossword clu crossword solv onlin crossword solv print crossword puzzl crossword help crossword help faq term us advert help ver email ad sit map wordplay priv beat word friend che get scrabble help solv crossword puzzl play boggl sudoku mak word search puzzl solv dai word jumbl diff langu try ful board scrabble che cre solv cryptogram transl pig latin us anagram mak phrases word much crossword solv word friend che scrabble word find boggl anagram solv scrabble help sudoku wordplay crossword solv scrabble word find scrabble help boggl anagram
p213
S'Arts_and_Entertainment'
p214
tp215
a(Vavvenir hom pag pagin accesso comment let diret chies vit famigl rubrich dossy mondo popot chi siamo abbonament contatt cronac politic cultur econom spettacol sport scienz tecnolog video foto bologn milano rom vegl pasqu battesimo per adult terr dei fuoch record tumor infantil iraq kamikaz allo stadio strage ragazz bruxel terzo uomo giornalist terr sant sar restaurat sir palmir vist dal alto video ministro cost piano post riv per mil al mosch alfano pap francesco telefon seminarist malato rom manovr marchin m5s risch mort patric italian dispers bruxel patric gli altr story chi non trov addio paolo pol gig del palcoscenico omicidio regen tutt dubb del ital egitto annunc uccid dei presunt assassin del ricerc us indian viet aborto per disabilit fet francesco profugh salutat uno uno giappon esecuzion venerd santo sabato santo giorno del attes via cruc immagin dal mondo tra grattaciel via cruc contro indifferenz drammatico dialogo tra giud mar convivenz scuol dov sfid decid fratellanz contagio che salv torn or leg ecco perch nat regen uccis sequestrator giallo addio seren elis am lenisc dol enzo bianch sabato santo giorno lungo pietrosant ferrett dialogo art sul annunciaz ustic film cerc verit due ruot arriv parabrezz ant distraz banch nuov cas del bcc sciopero poligrafic neanch avvenir edicol adoz incrociat copp omossess non tutt gli orfan interessano med politic coraggio umilt per contagi misericord diritt uman sono fin usano com mezz omaggio educ dov italianit boscovich verit cur ferit bruxel arrest ferito sospetto belgio nel mosch preg contro ter bruxel arrest cacc uomo bcc senso un riform diff contro utero affitto ital prim line alfano pronto piano contro radicalizzaz titano trovat sua montagn alt min dna sintetico passo per vit art morto ray tomlinson inv dell post elettronic healey parabol uman artistic grand heal soul cur del anim music dell pass inserto csi milano del marzo cte mal oscuro del footbal moro lass qualcuno am diret chi siamo contatt credit priv per pubblicit vetrin avvenir notizy principal gli approfondiment nost inchiest multimed avvenir vegl pasqu battesimo per adult
p216
S'News_and_Media'
p217
tp218
a(g10
S'Adult'
p219
tp220
a(Vupd logo join fre login help langu forgot login find horny wom look discreet affair mont memb join fre webmast earn money corp priv policy cooky term us protect kid help contact report abus sex explicit ad not numb click horny wif plac lon housew look hookup find discreet affair horny wom slutty nak wiv horny bitch horny wom lon che housew look affair horny housew look foraffair lon housew look hookup naughty housew testimon usernam
p221
S'Adult'
p222
tp223
a(Vrecuper password chi siamo are ricevitor classico onlin gioco risultat risultat liv statistich informazion quot totocalcio totogol big match big rac ippic pok casino bingo skil gam gioco risultat risultat liv statistich informazion quot totocalcio totogol big match big rac ippic lotter ital lotter brail superenalotto winforl videolottery new slot hom novit lis caric lis pag lis card pok lottomatic bon benvenuto scaric grat bon benvenuto priv disclaim not legal gioco respons lottomatic inform
p224
S'Gambling'
p225
tp226
a(g10
S'Adult'
p227
tp228
a(Vhom steam gam tf2 item dot steam sal steam calc faq contact forgot password pow steam hom faq saf priv term act adv strategy rpg indy cas sim rac sport fre steam gam csgo skin steam wallet cod steampow fre steam gam follow easy step us steampow
p229
S'Games'
p230
tp231
a(S'shar capitulo naruto capitulo naruto shippud naruto shippud esp esp naruto mang onlin naruto pel ova abrir chat ventan nuev mir capitulo naruto mir todo los capitulo naruto shippud capitulo naruto latino descarg capitulo naruto naruto shippud episodio grat capitulo naruto completo onlin naruto shippud'
p232
S'Arts_and_Entertainment'
p233
tp234
a(Vjump cont sign cre account view new cont mtc forum memb pag toggl fun philippin fun philippin hotel destin tagaytay today mtc group chapt welcom join memb feath group loc group hobby act group work industry group univers schools intern manilatonight memb resid country memb canad today mat heart mad sad tod today toggl direct plu est list vit inform direct plu est list vit inform spa makat banaw quezon av morato kamia kamun visaya panay lib eastwood katipun airport vicin southern area mandaluyong pion shaw roxa blvd macap blvd mal antipolo marikin ortiga pasig taguig spa kyoto retiro today mass parl happy saun frs reccom today ktvs nightclub heartb today motel apartel hotel99 today club bar bar 80s mus today resta coff shop plac meet food trip frs today toggl hot top real reason hot top real reason ktv gro top club today mpa top show togeth today sex tip techn sexcapad frs pick plac quezon city makat paranaqu manil pasig alabang mandaluyong pasay cebu davao city club bar top bar par nag iis lang today motel apartel top eurotel room rat yesterday toggl manil premy onlin commun manil premy onlin commun ev annount fre onlin consult memb leg med money fin bank loan technolog comput problem hum resourc employ opportun yesterday for gam memb word con today commun man complaint desk mod today toggl profil profil fem penth door op today mal silverclaw soundst today toggl lifestyl lifestyl cult liv pass today mot every car own today fash watch today heal fit wear glov yesterday sport barangay ginebr king today gam 6th mtc fantasy nba today technolog gadget cel today hobby cigaret vap today mus song list today tvs movy stag showb hottest sex scen today food bev eat right today toggl realm thought realm thought supern occult aly today relig philosoph person reflect agnost ath thread today art lit paint today polit econom cur ev pol suprem court allow today academ sci nakabalik schoo mar toggl produc serv advert review memb produc serv advert review memb produc review cellphon review yesterday serv review glob complaint thread mar buy sel apparel fash access cel phon cel access food suppl furnit apply non equip gadget hitech per hobby pet toy recr profess serv busy opportun read list view pleas real est transport job opportun yesterday unlock lock mar hid com unlock lock mar hid com unlock lock mar hid com unlock lock mar show com hid com unlock lock mar show com hid com view upd second presid deb bet ev presid elect tak chant rul pict graph commun man pol suprem court allow grac poe run presid mod team today top post overal top post lik cont see ful list priv policy us policy for guidelin chang them main flo ban top ban spa top ban spa pre board mobl help commun for softw board reg forgot password priv policy manilatonight manil premy onlin commun toggl fun philippin fun philippin hotel destin jump cont
p235
S'Adult'
p236
tp237
a(Vhom apk download new forum googl driv cnet softped inform new forum koplay link clos koplay fre android em help run android ap window adv feat lik opengl hardw acel support built x86 architect hent fast comp bluestack best fre android em koplay gam first cho android em hot gam koplay vaingl begin two week halcyon day spring celebr partn googl driv cnet softped inform
p238
S'Business_and_Industry'
p239
tp240
a(g10
S'Career_and_Education'
p241
tp242
a(S'nat geograph engl engl esp portugu tin deutsch engl esp fran ai polsk world war wargam world war wargam mmo'
p243
S'Games'
p244
tp245
a(Vchoa_ lee cha rin 2ne1 superdop lift taecyeon 2pm song yoon park joo hyung kim jong moon going touch jyp pict cont pool mae cruz alvi cathy garc molin richard arellano ab cbn dilemm island hong chang pyo kah school tablo tukutz epik high yoo hee yeol sketchbook lee wong yiu art lov as nav cast cardin black ros stepon son jung hyun sbs shadow exo planet exo lux lay lee soo man entertain fiest mir btob rememb zhoum radikun kim hyun kim woo bin kore march new photo magazin movy dram mus ful dram movy show movy new movy chin new dram dram kor act campaign photo ost rayk sov cho shast silverc katerina katerina clar ellagreen aleka_90 lif lee minho yoon snsd eid city lov absolv boyfriend ful hous flow boy ram shop syndrom dream high timchenko tatyan anya333 moonic kinkad dil ridok anjyl abigail dexrash zairk tatiana_b lany enny susann aitalysik ___ rushdron aika_1991 sokunkun kang nan guk weterok keneskhanovazh alavar1 miyako mor sil natali77 bacter tatk nessibel rinagru emv jadiko markizozk b2utyfulelf voic odr deardarcy aisooshk nst ad gornavik sha nigo frozen_queen katazzin sha spels nian niniko_net stasim nola5 mary_m ni_barash katerina jake78 krist muren allen_lu poo rosibis jukar ayakim lexy ref tatsuk sor siml bepo_huka ginny782 lil manzanill meraliss lut kiyom wand elena1510 tosha_ bobby kang soo hwa aleksa6235 kisy insomn aless kadyroov chir nasti djek elena_yp tom miyako chan sol drozofill lostr lopyx nightflow ailuh yf4 natalj rody lee lee20 jun zet o1717 zvetok_le_hime sin varvar saya_trance katsel mamaska0013 firant houm mariya88888 nasredin helga_1985 _yasmin_ vlada_s destiny2304 zcbm333 lexyyy dindin123456789 bibliot nikk meil nin tel a1zlast abramov iuli enm elizabe lalk jondok ell yag nat mkamenskay kassandr jd117 julk juliadryad albish honey lukas_greenland mariy miy zeddy kotenokmerry ellytru doll darlrne_divin host to4ka evit_ sofian katemochalova1997 kaijou sayashk leah solnyshko alisiy olga06 ofilya79 tichonn80 kimsash kosh spayk melliot van ein tashka23 nic person kkriss moon minsoo pancho_97 merimor ducksdotcom zhuk kitokat shyray sweet dizavrik met olga_2681 lok kjkiki inn garden mavblsh bang pupsikcat_doll nafany gulya78 choken_chok yuliya_m82 yulkina777 sr_timoxa kidney maret zzz slimp liud svet77 kimint sunny_girl ne_ia olgavlad slavrin dan not leo3854 yuong min katrinwnchst lyd corn flow suluim fop_2000 bjorkn vanil nag babavania49 taraxic grand sashenk seir juravlik hinataop elenas eliza_cl assj tais ir debora10 eleph anahit onostos nta ainyush arik juldys siranush lsnuna linux shast rum xo4595 urvancevas bloof xammond kal louisach albina05 sofij lanascorp besenok halfzero track27 hezulen falls29 savako alice16 ayselad krez maniloy nun fene lan nle uli4ka basil masha24 quint petra606 aya789 irakr alex inn lilu lou loc albin vika llenanun svkom sugoku hosh say katan katuwa_46 sesh212 ul juew gdragonn park_sang neit lee aej zuz mika_d al jennyan fill989 salim niilit torb yna_scorpio enjishid amilan25 jan young lavish denoir me4tateli elenk merek octop zin alovesouthkore elkinush mizmo brunetkann terr black cat park chanyeol vera tat shi jasmin saltik kim dian marianna333 annabel schisandra camomile92 iinush lin kozirev nunyah chezar danut09 malwinkagalink zoi phantomk olchik_k natalyona22 zveratigr squirrel abazk slivochnaj hiko15 kil cel wow aranid lunatopik belle_mort amik saxar2014 j_rock_star mimink salta_bst diana1216 amaterasu2828 gabriella1 selti_noir smil angeldamon malen natylk katrinfirsl clar kookych bon annastasy respiro bzs wad alina6 katyablekss syg evgeniy13 mariamjisung1 asselek viktor umk nika_jazzz elo27 iv travel ell_asatori adult__child savakod lilian raccoon mir meer elmik ackermann fruit baudalino bert irinaty auror kate_aka_uta kristyh kalidus911 zhasmin j28lia el22 tany crumb jojo princess1221 lanochk norung shogun black shadow volod qaterin reelk nacteno4ka fionrel pofig pacificac olga69 vir ayauk valin masyanin an prutik anxel odet littl lif barashik_01 sadeko kon sanvo fann ais i3erry dariadey raikir harmful_person anastasia_neko sabio rezid dreamerk benk chuchundrell vedan nyuk cvetlan kerf paranoy mariya82 drak kot_leta nicolin joy mine21 nata_liy gul rinrin emma351977 kukharenok xorst johnnikson mereylim mall lolakitty nearbird galq nmt2807 korotishka87 zhann angelina3208 belladonn lislin ale4ka_999 emcaco amy dono127 deniz miss kondrat_t cvetan evil141 lonely_rain qagehaq iaxsar kexibt cherry92 ligiay allenspad zlooo dianinz gokuvok leesooh he3hakomka 2love4gd tin selena128 dr_o_bina madinachk kuzin marya74 ghost_wolf ehnk umar auksin hollayollany nata dodoshk lik mind kora_ aa dzeshiko nikandraa likal daisy mal mal supernatural270390 kasiopey len pool wil galla_2 sabl vint meal jarook wolfofexo gayag prohodim nin love_in_idlenes bondik mimik liv kaar alakyl azs25062004 valter rojo alladi65 elli03 demi01 shh c9l safar moromu azazel4473 kre sayank rk214 lazyless lana18 lynatik alev tin kuba_krist sakasay rayk kur didi68 boss produc lost tomb doramakun
p246
S'Arts_and_Entertainment'
p247
tp248
a(g10
S'Arts_and_Entertainment'
p249
tp250
a(S'an rio par ano an rio par afilhad an rio par afilhado an rio par amig an rio par amigo an rio atrasado an rio par an rio par an rio casamento an rio par colega trabalho an rio par comadr an rio par compadr an rio par cunhad an rio par cunhado an rio par espos an rio par esposo an rio par filh an rio par filho an rio par genro an rio par irm an rio par irm an rio par madrinh an rio par an rio par marido an rio par namorad an rio par namorado an rio par net an rio par neto an rio par nor an rio par padrinho an rio par pai an rio par prim an rio par primo an rio par sobrinh an rio par sobrinho an rio par sogr an rio par sogro an rio sortido an rio par tia an rio par tio toda categoria mai ano sem voc amad saudad que foi falt que voc faz voc troux belez alegr par minh vid ped deu dia iluminado par voc mam minh minh hero mens rec parab por hoj felicidad par sempr nest dia espec parab todo carinho meu voto felicidad senh parab um pesso muito espec fel an rio fel an rio minh filh sempr minh mem ria hoj seu dia cunhad xim 7graus contato pol tic privacidad termo uso mens an rio melh mens fel an rio par envi par quem voc gost encont mensagem an rio mens an rio mens an rio parab minh amig que seu dia sej lindo quanto seu sorriso lhe of tant felicidad quanto sua amizad env par minh vid que est nov etap chegu rechead muit nova oportunidad par concretiz seu sonho mai desejado que alegr acompanh voc por todo momento que deu continu guiando todo seu passo iluminando cad vez mai seu pensamento que sua simpat poss contagi aind mai pessoa voc um pesso muito brilho humanidad merec que sua luz sej compartilhad nunc esqu quanto espec par minh vid tanta outra pessoa voc nic jama est sozinh nest jornad minh amig que seu dia sirv par confirm quanto voc amad como felicidad permanec eterna sua cas fel an rio'
p251
S'Adult'
p252
tp253
a(Vdescarga foro log tabl chat inici ses crear cuent doc estreno pelicula pelicula hdrip pelicula microhd pelicula vos sery sery vos futbol onlin descarga porno video porno elite_torrent descarga destacada ltimo estreno pel recomendada pel destacada sery destacada roy 1x06 roy 1x05 bet cal saul 2x06 blindspot 1x12 bibl contin 1x11 bibl contin 1x10 bibl contin 1x09 blindspot 1x11 dop microhd dop hdrip anatom grey 12x12 mag 1x09 paulin microhd kung pand lin diary teen girl microhd diary teen girl hdrip deadpool web screener kung pand screener oto sin berl microhd oto sin berl hdrip como defend asesino 2x07 formul austral cita 1x12 black sail 3x09 shameless 6x09 nci nuev orl 2x04 web therapy 1x08 bibl contin 1x08 bibl contin 1x07 bibl contin 1x06 bibl contin 1x05 ic ag busc del huevo microhd ic ag busc del huevo hdrip castl 8x13 leg 1x10 leg 1x09 deadb 1x06 deadb 1x05 star war despert fuerz screener buen matrimonio microhd buen matrimonio hdrip toleranc cero microhd mostr toda las descarga mostr toda las descarga listado seguir facebook seguir twit eliteweb network descarga tor elitetor net bienvenido elitetor net
p254
S'Internet_and_Telecom'
p255
tp256
a(S'sobr grupo solu parceiro contato search blog shop engl melh ofert ache minh ofert tudo cupon oferta mai melh viagem loj cupon melh blackfriday meu ximo notebook grupo oferta miss grupo oferta um empres digit commerc especializad aproxim blico alvo sua marc'
p257
S'Business_and_Industry'
p258
tp259
a(Vbiologiepagin biologiepagin facebook biologiepagin sit biolog oef biolog ler oef doe biologiepagin uitleg oefentoets biolog exam biologiepagin biologiesit voor oef ler van biolog exam kie kla voor biolog oef samenvat biolog toets biolog exam vmbo havo vwo cdat docu max_ct0 var m3_u loc protocol https https cas criteo delivery aj php http cas criteo delivery aj php var m3_r math flo math random docu writ scr ipt typ text javascrib src m3_u docu writ zoneid docu writ amp nod docu writ amp m3_r docu max_used docu writ amp exclud docu max_used docu writ docu charset amp charset docu charset docu characterset amp charset docu characterset docu writ amp loc escap window loc subst docu context docu writ context escap docu context typeof docu max_ct0 undefin docu max_ct0 subst http docu writ amp ct0 escap docu max_ct0 docu mmm_fo docu writ amp mmm_fo docu writ scr ipt
p260
S'Science'
p261
tp262
a(g10
S'Internet_and_Telecom'
p263
tp264
a(Vmovy televid gam mus softw anim ebook audiobook im adult new fresh top year arian grand beyont blak shelton bruno mar bryson til chris brown deadpool drak she eminem fetty wap fif harmony fiv fing dea punch flo rid fut eazy col jason ald justin bieb kendrick lam kevin gat lil boosy lil wayn luk bry megh train hous nick minas on direct rihann rihann work sam hunt selen gomez star war forc awak tayl swift walk dead weekend weeknd trey songz twenty on pilot wiz khalif work work rihann gott young thug fresh popul tor movy tor tor mus tor gam tor softw tor anim tor ebook tor torrent 1337x org torrentfunk yourbittor tor torrentbit theporndud torlock fast bittor search engin list ver tor search movy televid gam mus softw anim ver tor find perfect tor torlock fak tor sit fresh popul tor
p265
S'Internet_and_Telecom'
p266
tp267
a(g10
S'Sports'
p268
tp269
a(Vacc der contenu pag al menu princip al pied pag propo plan sit sal press portail bec emplo foir aux quest nou joindr engl revenu bec effectu perceiv des imp des tax afin ass fin des serv publ admin div program sociofiscaux revenu bec accueil obtenez des renseign sujet des oblig fisc des citoy des tax ains que des program dit vis les particu les travail autonom
p270
S'Law_and_Government'
p271
tp272
a(Vtil sid inneh emanuel start sport led kult til bevak logg afrik asy europ latinamerik mel stern nordamerik vis fler artikl kallad tjock svarad med at lla nol wagn sverig svettig jun wennerholm det aik sist hop melin jag bord rberet laget cruyff hedrad stormatch joh rabae fick mna let dant kund int skilj stat och riktigt folk fin allt vil men inget beh ver skattefifflarn har blivit dda bryssel svar med at det dag at red vad som ller jihadisterna ste vis an sid nat bra matchn den pass ngd rar och mils part trafikfar oss skick ttrollen kur motv spel terroristern ndern et hyckler at smugglarn som problemet richard aschberg och oberoend journalistik den rlamand konform straffar sig alltid soc klapp ihop flyktingst mmen skug kriget tar kvinnorn plat vars beh sex miljard kondom fan ldre all relig int dda det komplicerad eftersom inget mer rjob talet ljar nedg ngen bar tillf llig eft dshot har poet pilb got har jag ver andr sid at lta at jag och rubio gill tupac ing vil ngre var vux med lig uppkoppl man tid at sans sig kunskap ver et inom oss mit job som at rop ner et svart rldens starkast tapp fotf stet jag dum huvudet som int oro mig siffr integritetspolicy rss som din startsid surf lugnt rabattkod aftonbladet sarpanel lla socialanyhet fredrik palmqv kontakt aftonbladet kundts nst cookiepolicy mobl tablet tips aftonbladet startsid senast nyhetern aftonbladet sverig nyhetsport aftonbladet sverig nyhetsk lla och tespl autistisk and tvinga flytt eft boendet inrik rsen famils ras mot kommun beslut oerh besvikn
p273
S'News_and_Media'
p274
tp275
a(Vhom gam ps3 soon xbox soon fran ai film apk softw adob antivir brows convert compresss dat recovery dll fil driv dvd tool multimed mus off oth new support faq contact ent contact contact faq hom priv policy term serv unravel gam download fre crack unravel gam download fre crack overwatch download fre ful vert crack overwatch download fre ful vert crack gta download ful vert crack multiplay work eleg them wordpress sery company object satisfy custom genuinefil find typ paid apply fre genuinefil fre ap genuinefil welcom genuinefil easy download simpl sery company object satisfy custom typ company provid fals apply crappy thing aim mak money sit find typ apply che hack fre gam much brows littl sit find want problem may ask contact pag
p276
S'Internet_and_Telecom'
p277
tp278
a(Vbrows tor rec tor show mus top tweet pir bay facebook download leg threats us policy doodl search cloud tag cloud download mus movy gam softw much pir bay world largest bittor track pir beach pir bay fin dock pir bay proxy pir beach pir bay fin dock tweet funct var fjs getelementsbytagnam http test loc http https getelementbyid createel src platform twit widget fjs parentnod insertbef fjs docu script twit wjs
p279
S'Arts_and_Entertainment'
p280
tp281
a(Vsingap malays philippin indones thailand login sign new corp new annount read sme new produc guid ap softw system headphon med streamers hub port med play project speak blu ray play cas cool cpu desktop system digit camera gam graph card input dev mem mobl phon monit motherboard network notebook bluetoo headset gps dev pow supply unit inkjet print las print extern stor hard disk driv nas opt driv solid stat driv tablet televid wear hwz hwz pres samsung gear as rog rout as rog gx700 artic ev cov spec tech guid shootout gallery review diy tweak mod rum mil hot stuff new miscel ap develop soc med tech trend com net weird quirky tech forum spec ev dmclub infotech clin digit entertain lifestyl hub spec interest group marketplac lifestyl academ concern feedback channel oth shop shop hwz buy week pric list download pric guid tech show port market plac new review artic video blog tech company lov work garen feat sony mak playst gam phon new company cal forwardwork new appl old ipad air cheap good deal new appl watch ap healthy fit feat amazon push emerg upd kindl read new superhero movy feat ceo describ iphon old technolog feat new spec onepl leak launch ev rum 7th april new everyth nee know iphon inch ipad pro feat amd radeon nano nvid geforc gtx bet min itx system feat appl paus io upd old ipad iphon due brick bug new qualcom snapdragon return soc king feat leak photo iphon plu show dual camera button less design new link dwa ac1900 wireless usb adapt review maxim rout pot review photo samsung galaxy studio nge an city feat starhub pric plan iphon liv new new logitech g900 chao spectr might on custom mic ev new epson moverio smart glass aim set new standard aug real new nvid upd quadro m6000 set new record 24gb vram new singtel releas pric plan iphon new next samsung gear virt real got real as rog rout get spee ac88u ac5300 as rog gx700 world first liquid cool gam laptop hardwarezon term serv priv policy samsung galaxy edg thank techy as ac88u ac5300 rout samsung gear tre am clin mobl phon periph system digit camera notebook graph card new produc guid hwz artic sit map forum pric list market plac tech show port twit facebook googl youtub rss download hwz ap contact feedback advert hwz singap malays philippin indones thailand term serv priv policy pdpa hardwarezon lead onlin technolog port as pac giv latest tech upd technolog new produc gadget review technolog new produc gadget review latest tech upd hardwarezon singap hwz facebook act tech company lov work garen samsung galaxy edg
p282
S'News_and_Media'
p283
tp284
a.